
bomb:     file format elf64-x86-64


Disassembly of section .init:

0000000000003000 <_init>:
    3000:	f3 0f 1e fa          	endbr64 
    3004:	48 83 ec 08          	sub    $0x8,%rsp
    3008:	48 8b 05 d9 6f 00 00 	mov    0x6fd9(%rip),%rax        # 9fe8 <__gmon_start__>
    300f:	48 85 c0             	test   %rax,%rax
    3012:	74 02                	je     3016 <_init+0x16>
    3014:	ff d0                	callq  *%rax
    3016:	48 83 c4 08          	add    $0x8,%rsp
    301a:	c3                   	retq   

Disassembly of section .plt:

0000000000003020 <.plt>:
    3020:	ff 35 aa 6e 00 00    	pushq  0x6eaa(%rip)        # 9ed0 <_GLOBAL_OFFSET_TABLE_+0x8>
    3026:	f2 ff 25 ab 6e 00 00 	bnd jmpq *0x6eab(%rip)        # 9ed8 <_GLOBAL_OFFSET_TABLE_+0x10>
    302d:	0f 1f 00             	nopl   (%rax)
    3030:	f3 0f 1e fa          	endbr64 
    3034:	68 00 00 00 00       	pushq  $0x0
    3039:	f2 e9 e1 ff ff ff    	bnd jmpq 3020 <.plt>
    303f:	90                   	nop
    3040:	f3 0f 1e fa          	endbr64 
    3044:	68 01 00 00 00       	pushq  $0x1
    3049:	f2 e9 d1 ff ff ff    	bnd jmpq 3020 <.plt>
    304f:	90                   	nop
    3050:	f3 0f 1e fa          	endbr64 
    3054:	68 02 00 00 00       	pushq  $0x2
    3059:	f2 e9 c1 ff ff ff    	bnd jmpq 3020 <.plt>
    305f:	90                   	nop
    3060:	f3 0f 1e fa          	endbr64 
    3064:	68 03 00 00 00       	pushq  $0x3
    3069:	f2 e9 b1 ff ff ff    	bnd jmpq 3020 <.plt>
    306f:	90                   	nop
    3070:	f3 0f 1e fa          	endbr64 
    3074:	68 04 00 00 00       	pushq  $0x4
    3079:	f2 e9 a1 ff ff ff    	bnd jmpq 3020 <.plt>
    307f:	90                   	nop
    3080:	f3 0f 1e fa          	endbr64 
    3084:	68 05 00 00 00       	pushq  $0x5
    3089:	f2 e9 91 ff ff ff    	bnd jmpq 3020 <.plt>
    308f:	90                   	nop
    3090:	f3 0f 1e fa          	endbr64 
    3094:	68 06 00 00 00       	pushq  $0x6
    3099:	f2 e9 81 ff ff ff    	bnd jmpq 3020 <.plt>
    309f:	90                   	nop
    30a0:	f3 0f 1e fa          	endbr64 
    30a4:	68 07 00 00 00       	pushq  $0x7
    30a9:	f2 e9 71 ff ff ff    	bnd jmpq 3020 <.plt>
    30af:	90                   	nop
    30b0:	f3 0f 1e fa          	endbr64 
    30b4:	68 08 00 00 00       	pushq  $0x8
    30b9:	f2 e9 61 ff ff ff    	bnd jmpq 3020 <.plt>
    30bf:	90                   	nop
    30c0:	f3 0f 1e fa          	endbr64 
    30c4:	68 09 00 00 00       	pushq  $0x9
    30c9:	f2 e9 51 ff ff ff    	bnd jmpq 3020 <.plt>
    30cf:	90                   	nop
    30d0:	f3 0f 1e fa          	endbr64 
    30d4:	68 0a 00 00 00       	pushq  $0xa
    30d9:	f2 e9 41 ff ff ff    	bnd jmpq 3020 <.plt>
    30df:	90                   	nop
    30e0:	f3 0f 1e fa          	endbr64 
    30e4:	68 0b 00 00 00       	pushq  $0xb
    30e9:	f2 e9 31 ff ff ff    	bnd jmpq 3020 <.plt>
    30ef:	90                   	nop
    30f0:	f3 0f 1e fa          	endbr64 
    30f4:	68 0c 00 00 00       	pushq  $0xc
    30f9:	f2 e9 21 ff ff ff    	bnd jmpq 3020 <.plt>
    30ff:	90                   	nop
    3100:	f3 0f 1e fa          	endbr64 
    3104:	68 0d 00 00 00       	pushq  $0xd
    3109:	f2 e9 11 ff ff ff    	bnd jmpq 3020 <.plt>
    310f:	90                   	nop
    3110:	f3 0f 1e fa          	endbr64 
    3114:	68 0e 00 00 00       	pushq  $0xe
    3119:	f2 e9 01 ff ff ff    	bnd jmpq 3020 <.plt>
    311f:	90                   	nop
    3120:	f3 0f 1e fa          	endbr64 
    3124:	68 0f 00 00 00       	pushq  $0xf
    3129:	f2 e9 f1 fe ff ff    	bnd jmpq 3020 <.plt>
    312f:	90                   	nop
    3130:	f3 0f 1e fa          	endbr64 
    3134:	68 10 00 00 00       	pushq  $0x10
    3139:	f2 e9 e1 fe ff ff    	bnd jmpq 3020 <.plt>
    313f:	90                   	nop
    3140:	f3 0f 1e fa          	endbr64 
    3144:	68 11 00 00 00       	pushq  $0x11
    3149:	f2 e9 d1 fe ff ff    	bnd jmpq 3020 <.plt>
    314f:	90                   	nop
    3150:	f3 0f 1e fa          	endbr64 
    3154:	68 12 00 00 00       	pushq  $0x12
    3159:	f2 e9 c1 fe ff ff    	bnd jmpq 3020 <.plt>
    315f:	90                   	nop
    3160:	f3 0f 1e fa          	endbr64 
    3164:	68 13 00 00 00       	pushq  $0x13
    3169:	f2 e9 b1 fe ff ff    	bnd jmpq 3020 <.plt>
    316f:	90                   	nop
    3170:	f3 0f 1e fa          	endbr64 
    3174:	68 14 00 00 00       	pushq  $0x14
    3179:	f2 e9 a1 fe ff ff    	bnd jmpq 3020 <.plt>
    317f:	90                   	nop
    3180:	f3 0f 1e fa          	endbr64 
    3184:	68 15 00 00 00       	pushq  $0x15
    3189:	f2 e9 91 fe ff ff    	bnd jmpq 3020 <.plt>
    318f:	90                   	nop
    3190:	f3 0f 1e fa          	endbr64 
    3194:	68 16 00 00 00       	pushq  $0x16
    3199:	f2 e9 81 fe ff ff    	bnd jmpq 3020 <.plt>
    319f:	90                   	nop
    31a0:	f3 0f 1e fa          	endbr64 
    31a4:	68 17 00 00 00       	pushq  $0x17
    31a9:	f2 e9 71 fe ff ff    	bnd jmpq 3020 <.plt>
    31af:	90                   	nop
    31b0:	f3 0f 1e fa          	endbr64 
    31b4:	68 18 00 00 00       	pushq  $0x18
    31b9:	f2 e9 61 fe ff ff    	bnd jmpq 3020 <.plt>
    31bf:	90                   	nop
    31c0:	f3 0f 1e fa          	endbr64 
    31c4:	68 19 00 00 00       	pushq  $0x19
    31c9:	f2 e9 51 fe ff ff    	bnd jmpq 3020 <.plt>
    31cf:	90                   	nop
    31d0:	f3 0f 1e fa          	endbr64 
    31d4:	68 1a 00 00 00       	pushq  $0x1a
    31d9:	f2 e9 41 fe ff ff    	bnd jmpq 3020 <.plt>
    31df:	90                   	nop
    31e0:	f3 0f 1e fa          	endbr64 
    31e4:	68 1b 00 00 00       	pushq  $0x1b
    31e9:	f2 e9 31 fe ff ff    	bnd jmpq 3020 <.plt>
    31ef:	90                   	nop
    31f0:	f3 0f 1e fa          	endbr64 
    31f4:	68 1c 00 00 00       	pushq  $0x1c
    31f9:	f2 e9 21 fe ff ff    	bnd jmpq 3020 <.plt>
    31ff:	90                   	nop
    3200:	f3 0f 1e fa          	endbr64 
    3204:	68 1d 00 00 00       	pushq  $0x1d
    3209:	f2 e9 11 fe ff ff    	bnd jmpq 3020 <.plt>
    320f:	90                   	nop
    3210:	f3 0f 1e fa          	endbr64 
    3214:	68 1e 00 00 00       	pushq  $0x1e
    3219:	f2 e9 01 fe ff ff    	bnd jmpq 3020 <.plt>
    321f:	90                   	nop

Disassembly of section .plt.got:

0000000000003220 <__cxa_finalize@plt>:
    3220:	f3 0f 1e fa          	endbr64 
    3224:	f2 ff 25 cd 6d 00 00 	bnd jmpq *0x6dcd(%rip)        # 9ff8 <__cxa_finalize@GLIBC_2.2.5>
    322b:	0f 1f 44 00 00       	nopl   0x0(%rax,%rax,1)

Disassembly of section .plt.sec:

0000000000003230 <getenv@plt>:
    3230:	f3 0f 1e fa          	endbr64 
    3234:	f2 ff 25 a5 6c 00 00 	bnd jmpq *0x6ca5(%rip)        # 9ee0 <getenv@GLIBC_2.2.5>
    323b:	0f 1f 44 00 00       	nopl   0x0(%rax,%rax,1)

0000000000003240 <__snprintf_chk@plt>:
    3240:	f3 0f 1e fa          	endbr64 
    3244:	f2 ff 25 9d 6c 00 00 	bnd jmpq *0x6c9d(%rip)        # 9ee8 <__snprintf_chk@GLIBC_2.3.4>
    324b:	0f 1f 44 00 00       	nopl   0x0(%rax,%rax,1)

0000000000003250 <putchar@plt>:
    3250:	f3 0f 1e fa          	endbr64 
    3254:	f2 ff 25 95 6c 00 00 	bnd jmpq *0x6c95(%rip)        # 9ef0 <putchar@GLIBC_2.2.5>
    325b:	0f 1f 44 00 00       	nopl   0x0(%rax,%rax,1)

0000000000003260 <strcasecmp@plt>:
    3260:	f3 0f 1e fa          	endbr64 
    3264:	f2 ff 25 8d 6c 00 00 	bnd jmpq *0x6c8d(%rip)        # 9ef8 <strcasecmp@GLIBC_2.2.5>
    326b:	0f 1f 44 00 00       	nopl   0x0(%rax,%rax,1)

0000000000003270 <__errno_location@plt>:
    3270:	f3 0f 1e fa          	endbr64 
    3274:	f2 ff 25 85 6c 00 00 	bnd jmpq *0x6c85(%rip)        # 9f00 <__errno_location@GLIBC_2.2.5>
    327b:	0f 1f 44 00 00       	nopl   0x0(%rax,%rax,1)

0000000000003280 <strcpy@plt>:
    3280:	f3 0f 1e fa          	endbr64 
    3284:	f2 ff 25 7d 6c 00 00 	bnd jmpq *0x6c7d(%rip)        # 9f08 <strcpy@GLIBC_2.2.5>
    328b:	0f 1f 44 00 00       	nopl   0x0(%rax,%rax,1)

0000000000003290 <puts@plt>:
    3290:	f3 0f 1e fa          	endbr64 
    3294:	f2 ff 25 75 6c 00 00 	bnd jmpq *0x6c75(%rip)        # 9f10 <puts@GLIBC_2.2.5>
    329b:	0f 1f 44 00 00       	nopl   0x0(%rax,%rax,1)

00000000000032a0 <write@plt>:
    32a0:	f3 0f 1e fa          	endbr64 
    32a4:	f2 ff 25 6d 6c 00 00 	bnd jmpq *0x6c6d(%rip)        # 9f18 <write@GLIBC_2.2.5>
    32ab:	0f 1f 44 00 00       	nopl   0x0(%rax,%rax,1)

00000000000032b0 <__stack_chk_fail@plt>:
    32b0:	f3 0f 1e fa          	endbr64 
    32b4:	f2 ff 25 65 6c 00 00 	bnd jmpq *0x6c65(%rip)        # 9f20 <__stack_chk_fail@GLIBC_2.4>
    32bb:	0f 1f 44 00 00       	nopl   0x0(%rax,%rax,1)

00000000000032c0 <alarm@plt>:
    32c0:	f3 0f 1e fa          	endbr64 
    32c4:	f2 ff 25 5d 6c 00 00 	bnd jmpq *0x6c5d(%rip)        # 9f28 <alarm@GLIBC_2.2.5>
    32cb:	0f 1f 44 00 00       	nopl   0x0(%rax,%rax,1)

00000000000032d0 <close@plt>:
    32d0:	f3 0f 1e fa          	endbr64 
    32d4:	f2 ff 25 55 6c 00 00 	bnd jmpq *0x6c55(%rip)        # 9f30 <close@GLIBC_2.2.5>
    32db:	0f 1f 44 00 00       	nopl   0x0(%rax,%rax,1)

00000000000032e0 <read@plt>:
    32e0:	f3 0f 1e fa          	endbr64 
    32e4:	f2 ff 25 4d 6c 00 00 	bnd jmpq *0x6c4d(%rip)        # 9f38 <read@GLIBC_2.2.5>
    32eb:	0f 1f 44 00 00       	nopl   0x0(%rax,%rax,1)

00000000000032f0 <fgets@plt>:
    32f0:	f3 0f 1e fa          	endbr64 
    32f4:	f2 ff 25 45 6c 00 00 	bnd jmpq *0x6c45(%rip)        # 9f40 <fgets@GLIBC_2.2.5>
    32fb:	0f 1f 44 00 00       	nopl   0x0(%rax,%rax,1)

0000000000003300 <strcmp@plt>:
    3300:	f3 0f 1e fa          	endbr64 
    3304:	f2 ff 25 3d 6c 00 00 	bnd jmpq *0x6c3d(%rip)        # 9f48 <strcmp@GLIBC_2.2.5>
    330b:	0f 1f 44 00 00       	nopl   0x0(%rax,%rax,1)

0000000000003310 <signal@plt>:
    3310:	f3 0f 1e fa          	endbr64 
    3314:	f2 ff 25 35 6c 00 00 	bnd jmpq *0x6c35(%rip)        # 9f50 <signal@GLIBC_2.2.5>
    331b:	0f 1f 44 00 00       	nopl   0x0(%rax,%rax,1)

0000000000003320 <gethostbyname@plt>:
    3320:	f3 0f 1e fa          	endbr64 
    3324:	f2 ff 25 2d 6c 00 00 	bnd jmpq *0x6c2d(%rip)        # 9f58 <gethostbyname@GLIBC_2.2.5>
    332b:	0f 1f 44 00 00       	nopl   0x0(%rax,%rax,1)

0000000000003330 <__memmove_chk@plt>:
    3330:	f3 0f 1e fa          	endbr64 
    3334:	f2 ff 25 25 6c 00 00 	bnd jmpq *0x6c25(%rip)        # 9f60 <__memmove_chk@GLIBC_2.3.4>
    333b:	0f 1f 44 00 00       	nopl   0x0(%rax,%rax,1)

0000000000003340 <strtol@plt>:
    3340:	f3 0f 1e fa          	endbr64 
    3344:	f2 ff 25 1d 6c 00 00 	bnd jmpq *0x6c1d(%rip)        # 9f68 <strtol@GLIBC_2.2.5>
    334b:	0f 1f 44 00 00       	nopl   0x0(%rax,%rax,1)

0000000000003350 <malloc@plt>:
    3350:	f3 0f 1e fa          	endbr64 
    3354:	f2 ff 25 15 6c 00 00 	bnd jmpq *0x6c15(%rip)        # 9f70 <malloc@GLIBC_2.2.5>
    335b:	0f 1f 44 00 00       	nopl   0x0(%rax,%rax,1)

0000000000003360 <__isoc99_sscanf@plt>:
    3360:	f3 0f 1e fa          	endbr64 
    3364:	f2 ff 25 0d 6c 00 00 	bnd jmpq *0x6c0d(%rip)        # 9f78 <__isoc99_sscanf@GLIBC_2.7>
    336b:	0f 1f 44 00 00       	nopl   0x0(%rax,%rax,1)

0000000000003370 <__strcpy_chk@plt>:
    3370:	f3 0f 1e fa          	endbr64 
    3374:	f2 ff 25 05 6c 00 00 	bnd jmpq *0x6c05(%rip)        # 9f80 <__strcpy_chk@GLIBC_2.3.4>
    337b:	0f 1f 44 00 00       	nopl   0x0(%rax,%rax,1)

0000000000003380 <__printf_chk@plt>:
    3380:	f3 0f 1e fa          	endbr64 
    3384:	f2 ff 25 fd 6b 00 00 	bnd jmpq *0x6bfd(%rip)        # 9f88 <__printf_chk@GLIBC_2.3.4>
    338b:	0f 1f 44 00 00       	nopl   0x0(%rax,%rax,1)

0000000000003390 <fopen@plt>:
    3390:	f3 0f 1e fa          	endbr64 
    3394:	f2 ff 25 f5 6b 00 00 	bnd jmpq *0x6bf5(%rip)        # 9f90 <fopen@GLIBC_2.2.5>
    339b:	0f 1f 44 00 00       	nopl   0x0(%rax,%rax,1)

00000000000033a0 <gethostname@plt>:
    33a0:	f3 0f 1e fa          	endbr64 
    33a4:	f2 ff 25 ed 6b 00 00 	bnd jmpq *0x6bed(%rip)        # 9f98 <gethostname@GLIBC_2.2.5>
    33ab:	0f 1f 44 00 00       	nopl   0x0(%rax,%rax,1)

00000000000033b0 <exit@plt>:
    33b0:	f3 0f 1e fa          	endbr64 
    33b4:	f2 ff 25 e5 6b 00 00 	bnd jmpq *0x6be5(%rip)        # 9fa0 <exit@GLIBC_2.2.5>
    33bb:	0f 1f 44 00 00       	nopl   0x0(%rax,%rax,1)

00000000000033c0 <connect@plt>:
    33c0:	f3 0f 1e fa          	endbr64 
    33c4:	f2 ff 25 dd 6b 00 00 	bnd jmpq *0x6bdd(%rip)        # 9fa8 <connect@GLIBC_2.2.5>
    33cb:	0f 1f 44 00 00       	nopl   0x0(%rax,%rax,1)

00000000000033d0 <__fprintf_chk@plt>:
    33d0:	f3 0f 1e fa          	endbr64 
    33d4:	f2 ff 25 d5 6b 00 00 	bnd jmpq *0x6bd5(%rip)        # 9fb0 <__fprintf_chk@GLIBC_2.3.4>
    33db:	0f 1f 44 00 00       	nopl   0x0(%rax,%rax,1)

00000000000033e0 <sleep@plt>:
    33e0:	f3 0f 1e fa          	endbr64 
    33e4:	f2 ff 25 cd 6b 00 00 	bnd jmpq *0x6bcd(%rip)        # 9fb8 <sleep@GLIBC_2.2.5>
    33eb:	0f 1f 44 00 00       	nopl   0x0(%rax,%rax,1)

00000000000033f0 <__ctype_b_loc@plt>:
    33f0:	f3 0f 1e fa          	endbr64 
    33f4:	f2 ff 25 c5 6b 00 00 	bnd jmpq *0x6bc5(%rip)        # 9fc0 <__ctype_b_loc@GLIBC_2.3>
    33fb:	0f 1f 44 00 00       	nopl   0x0(%rax,%rax,1)

0000000000003400 <__sprintf_chk@plt>:
    3400:	f3 0f 1e fa          	endbr64 
    3404:	f2 ff 25 bd 6b 00 00 	bnd jmpq *0x6bbd(%rip)        # 9fc8 <__sprintf_chk@GLIBC_2.3.4>
    340b:	0f 1f 44 00 00       	nopl   0x0(%rax,%rax,1)

0000000000003410 <socket@plt>:
    3410:	f3 0f 1e fa          	endbr64 
    3414:	f2 ff 25 b5 6b 00 00 	bnd jmpq *0x6bb5(%rip)        # 9fd0 <socket@GLIBC_2.2.5>
    341b:	0f 1f 44 00 00       	nopl   0x0(%rax,%rax,1)

Disassembly of section .text:

0000000000003420 <_start>:
    3420:	f3 0f 1e fa          	endbr64 
    3424:	31 ed                	xor    %ebp,%ebp
    3426:	49 89 d1             	mov    %rdx,%r9
    3429:	5e                   	pop    %rsi
    342a:	48 89 e2             	mov    %rsp,%rdx
    342d:	48 83 e4 f0          	and    $0xfffffffffffffff0,%rsp
    3431:	50                   	push   %rax
    3432:	54                   	push   %rsp
    3433:	4c 8d 05 86 1e 00 00 	lea    0x1e86(%rip),%r8        # 52c0 <__libc_csu_fini>
    343a:	48 8d 0d 0f 1e 00 00 	lea    0x1e0f(%rip),%rcx        # 5250 <__libc_csu_init>
    3441:	48 8d 3d c1 00 00 00 	lea    0xc1(%rip),%rdi        # 3509 <main>
    3448:	ff 15 92 6b 00 00    	callq  *0x6b92(%rip)        # 9fe0 <__libc_start_main@GLIBC_2.2.5>
    344e:	f4                   	hlt    
    344f:	90                   	nop

0000000000003450 <deregister_tm_clones>:
    3450:	48 8d 3d c9 7d 00 00 	lea    0x7dc9(%rip),%rdi        # b220 <stdin@@GLIBC_2.2.5>
    3457:	48 8d 05 c2 7d 00 00 	lea    0x7dc2(%rip),%rax        # b220 <stdin@@GLIBC_2.2.5>
    345e:	48 39 f8             	cmp    %rdi,%rax
    3461:	74 15                	je     3478 <deregister_tm_clones+0x28>
    3463:	48 8b 05 6e 6b 00 00 	mov    0x6b6e(%rip),%rax        # 9fd8 <_ITM_deregisterTMCloneTable>
    346a:	48 85 c0             	test   %rax,%rax
    346d:	74 09                	je     3478 <deregister_tm_clones+0x28>
    346f:	ff e0                	jmpq   *%rax
    3471:	0f 1f 80 00 00 00 00 	nopl   0x0(%rax)
    3478:	c3                   	retq   
    3479:	0f 1f 80 00 00 00 00 	nopl   0x0(%rax)

0000000000003480 <register_tm_clones>:
    3480:	48 8d 3d 99 7d 00 00 	lea    0x7d99(%rip),%rdi        # b220 <stdin@@GLIBC_2.2.5>
    3487:	48 8d 35 92 7d 00 00 	lea    0x7d92(%rip),%rsi        # b220 <stdin@@GLIBC_2.2.5>
    348e:	48 29 fe             	sub    %rdi,%rsi
    3491:	48 89 f0             	mov    %rsi,%rax
    3494:	48 c1 ee 3f          	shr    $0x3f,%rsi
    3498:	48 c1 f8 03          	sar    $0x3,%rax
    349c:	48 01 c6             	add    %rax,%rsi
    349f:	48 d1 fe             	sar    %rsi
    34a2:	74 14                	je     34b8 <register_tm_clones+0x38>
    34a4:	48 8b 05 45 6b 00 00 	mov    0x6b45(%rip),%rax        # 9ff0 <_ITM_registerTMCloneTable>
    34ab:	48 85 c0             	test   %rax,%rax
    34ae:	74 08                	je     34b8 <register_tm_clones+0x38>
    34b0:	ff e0                	jmpq   *%rax
    34b2:	66 0f 1f 44 00 00    	nopw   0x0(%rax,%rax,1)
    34b8:	c3                   	retq   
    34b9:	0f 1f 80 00 00 00 00 	nopl   0x0(%rax)

00000000000034c0 <__do_global_dtors_aux>:
    34c0:	f3 0f 1e fa          	endbr64 
    34c4:	80 3d 7d 7d 00 00 00 	cmpb   $0x0,0x7d7d(%rip)        # b248 <completed.8061>
    34cb:	75 2b                	jne    34f8 <__do_global_dtors_aux+0x38>
    34cd:	55                   	push   %rbp
    34ce:	48 83 3d 22 6b 00 00 	cmpq   $0x0,0x6b22(%rip)        # 9ff8 <__cxa_finalize@GLIBC_2.2.5>
    34d5:	00 
    34d6:	48 89 e5             	mov    %rsp,%rbp
    34d9:	74 0c                	je     34e7 <__do_global_dtors_aux+0x27>
    34db:	48 8b 3d 26 6b 00 00 	mov    0x6b26(%rip),%rdi        # a008 <__dso_handle>
    34e2:	e8 39 fd ff ff       	callq  3220 <__cxa_finalize@plt>
    34e7:	e8 64 ff ff ff       	callq  3450 <deregister_tm_clones>
    34ec:	c6 05 55 7d 00 00 01 	movb   $0x1,0x7d55(%rip)        # b248 <completed.8061>
    34f3:	5d                   	pop    %rbp
    34f4:	c3                   	retq   
    34f5:	0f 1f 00             	nopl   (%rax)
    34f8:	c3                   	retq   
    34f9:	0f 1f 80 00 00 00 00 	nopl   0x0(%rax)

0000000000003500 <frame_dummy>:
    3500:	f3 0f 1e fa          	endbr64 
    3504:	e9 77 ff ff ff       	jmpq   3480 <register_tm_clones>

0000000000003509 <main>:
    3509:	f3 0f 1e fa          	endbr64 
    350d:	53                   	push   %rbx
    350e:	83 ff 01             	cmp    $0x1,%edi
    3511:	0f 84 f8 00 00 00    	je     360f <main+0x106>
    3517:	48 89 f3             	mov    %rsi,%rbx
    351a:	83 ff 02             	cmp    $0x2,%edi
    351d:	0f 85 21 01 00 00    	jne    3644 <main+0x13b>
    3523:	48 8b 7e 08          	mov    0x8(%rsi),%rdi
    3527:	48 8d 35 a9 2c 00 00 	lea    0x2ca9(%rip),%rsi        # 61d7 <_IO_stdin_used+0x1d7>
    352e:	e8 5d fe ff ff       	callq  3390 <fopen@plt>
    3533:	48 89 05 16 7d 00 00 	mov    %rax,0x7d16(%rip)        # b250 <infile>
    353a:	48 85 c0             	test   %rax,%rax
    353d:	0f 84 df 00 00 00    	je     3622 <main+0x119>
    3543:	e8 54 0a 00 00       	callq  3f9c <initialize_bomb>
    3548:	48 8d 3d 39 2b 00 00 	lea    0x2b39(%rip),%rdi        # 6088 <_IO_stdin_used+0x88>
    354f:	e8 3c fd ff ff       	callq  3290 <puts@plt>
    3554:	48 8d 3d 6d 2b 00 00 	lea    0x2b6d(%rip),%rdi        # 60c8 <_IO_stdin_used+0xc8>
    355b:	e8 30 fd ff ff       	callq  3290 <puts@plt>
    3560:	e8 a8 0d 00 00       	callq  430d <read_line>
    3565:	48 89 c7             	mov    %rax,%rdi
    3568:	e8 fa 00 00 00       	callq  3667 <phase_1>
    356d:	e8 fe 0e 00 00       	callq  4470 <phase_defused>
    3572:	48 8d 3d 7f 2b 00 00 	lea    0x2b7f(%rip),%rdi        # 60f8 <_IO_stdin_used+0xf8>
    3579:	e8 12 fd ff ff       	callq  3290 <puts@plt>
    357e:	e8 8a 0d 00 00       	callq  430d <read_line>
    3583:	48 89 c7             	mov    %rax,%rdi
    3586:	e8 00 01 00 00       	callq  368b <phase_2>
    358b:	e8 e0 0e 00 00       	callq  4470 <phase_defused>
    3590:	48 8d 3d a4 2a 00 00 	lea    0x2aa4(%rip),%rdi        # 603b <_IO_stdin_used+0x3b>
    3597:	e8 f4 fc ff ff       	callq  3290 <puts@plt>
    359c:	e8 6c 0d 00 00       	callq  430d <read_line>
    35a1:	48 89 c7             	mov    %rax,%rdi
    35a4:	e8 56 01 00 00       	callq  36ff <phase_3>
    35a9:	e8 c2 0e 00 00       	callq  4470 <phase_defused>
    35ae:	48 8d 3d a4 2a 00 00 	lea    0x2aa4(%rip),%rdi        # 6059 <_IO_stdin_used+0x59>
    35b5:	e8 d6 fc ff ff       	callq  3290 <puts@plt>
    35ba:	e8 4e 0d 00 00       	callq  430d <read_line>
    35bf:	48 89 c7             	mov    %rax,%rdi
    35c2:	e8 50 02 00 00       	callq  3817 <phase_4>
    35c7:	e8 a4 0e 00 00       	callq  4470 <phase_defused>
    35cc:	48 8d 3d 55 2b 00 00 	lea    0x2b55(%rip),%rdi        # 6128 <_IO_stdin_used+0x128>
    35d3:	e8 b8 fc ff ff       	callq  3290 <puts@plt>
    35d8:	e8 30 0d 00 00       	callq  430d <read_line>
    35dd:	48 89 c7             	mov    %rax,%rdi
    35e0:	e8 ab 02 00 00       	callq  3890 <phase_5>
    35e5:	e8 86 0e 00 00       	callq  4470 <phase_defused>
    35ea:	48 8d 3d 77 2a 00 00 	lea    0x2a77(%rip),%rdi        # 6068 <_IO_stdin_used+0x68>
    35f1:	e8 9a fc ff ff       	callq  3290 <puts@plt>
    35f6:	e8 12 0d 00 00       	callq  430d <read_line>
    35fb:	48 89 c7             	mov    %rax,%rdi
    35fe:	e8 a9 06 00 00       	callq  3cac <phase_6>
    3603:	e8 68 0e 00 00       	callq  4470 <phase_defused>
    3608:	b8 00 00 00 00       	mov    $0x0,%eax
    360d:	5b                   	pop    %rbx
    360e:	c3                   	retq   
    360f:	48 8b 05 0a 7c 00 00 	mov    0x7c0a(%rip),%rax        # b220 <stdin@@GLIBC_2.2.5>
    3616:	48 89 05 33 7c 00 00 	mov    %rax,0x7c33(%rip)        # b250 <infile>
    361d:	e9 21 ff ff ff       	jmpq   3543 <main+0x3a>
    3622:	48 8b 4b 08          	mov    0x8(%rbx),%rcx
    3626:	48 8b 13             	mov    (%rbx),%rdx
    3629:	48 8d 35 d4 29 00 00 	lea    0x29d4(%rip),%rsi        # 6004 <_IO_stdin_used+0x4>
    3630:	bf 01 00 00 00       	mov    $0x1,%edi
    3635:	e8 46 fd ff ff       	callq  3380 <__printf_chk@plt>
    363a:	bf 08 00 00 00       	mov    $0x8,%edi
    363f:	e8 6c fd ff ff       	callq  33b0 <exit@plt>
    3644:	48 8b 16             	mov    (%rsi),%rdx
    3647:	48 8d 35 d3 29 00 00 	lea    0x29d3(%rip),%rsi        # 6021 <_IO_stdin_used+0x21>
    364e:	bf 01 00 00 00       	mov    $0x1,%edi
    3653:	b8 00 00 00 00       	mov    $0x0,%eax
    3658:	e8 23 fd ff ff       	callq  3380 <__printf_chk@plt>
    365d:	bf 08 00 00 00       	mov    $0x8,%edi
    3662:	e8 49 fd ff ff       	callq  33b0 <exit@plt>

0000000000003667 <phase_1>:
    3667:	f3 0f 1e fa          	endbr64 
    366b:	48 83 ec 08          	sub    $0x8,%rsp
    366f:	48 8d 35 da 2a 00 00 	lea    0x2ada(%rip),%rsi        # 6150 <_IO_stdin_used+0x150>
    3676:	e8 c1 08 00 00       	callq  3f3c <strings_not_equal>
    367b:	85 c0                	test   %eax,%eax
    367d:	75 05                	jne    3684 <phase_1+0x1d>
    367f:	48 83 c4 08          	add    $0x8,%rsp
    3683:	c3                   	retq   
    3684:	e8 fd 0b 00 00       	callq  4286 <explode_bomb>
    3689:	eb f4                	jmp    367f <phase_1+0x18>

000000000000368b <phase_2>:
    368b:	f3 0f 1e fa          	endbr64 
    368f:	55                   	push   %rbp
    3690:	53                   	push   %rbx
    3691:	48 83 ec 28          	sub    $0x28,%rsp
    3695:	64 48 8b 04 25 28 00 	mov    %fs:0x28,%rax
    369c:	00 00 
    369e:	48 89 44 24 18       	mov    %rax,0x18(%rsp)
    36a3:	31 c0                	xor    %eax,%eax
    36a5:	48 89 e6             	mov    %rsp,%rsi
    36a8:	e8 1b 0c 00 00       	callq  42c8 <read_six_numbers>
    36ad:	83 3c 24 00          	cmpl   $0x0,(%rsp)
    36b1:	75 07                	jne    36ba <phase_2+0x2f>
    36b3:	83 7c 24 04 01       	cmpl   $0x1,0x4(%rsp)
    36b8:	74 05                	je     36bf <phase_2+0x34>
    36ba:	e8 c7 0b 00 00       	callq  4286 <explode_bomb>
    36bf:	48 89 e3             	mov    %rsp,%rbx
    36c2:	48 8d 6c 24 10       	lea    0x10(%rsp),%rbp
    36c7:	eb 0e                	jmp    36d7 <phase_2+0x4c>
    36c9:	e8 b8 0b 00 00       	callq  4286 <explode_bomb>
    36ce:	48 83 c3 04          	add    $0x4,%rbx
    36d2:	48 39 eb             	cmp    %rbp,%rbx
    36d5:	74 0c                	je     36e3 <phase_2+0x58>
    36d7:	8b 43 04             	mov    0x4(%rbx),%eax
    36da:	03 03                	add    (%rbx),%eax
    36dc:	39 43 08             	cmp    %eax,0x8(%rbx)
    36df:	74 ed                	je     36ce <phase_2+0x43>
    36e1:	eb e6                	jmp    36c9 <phase_2+0x3e>
    36e3:	48 8b 44 24 18       	mov    0x18(%rsp),%rax
    36e8:	64 48 33 04 25 28 00 	xor    %fs:0x28,%rax
    36ef:	00 00 
    36f1:	75 07                	jne    36fa <phase_2+0x6f>
    36f3:	48 83 c4 28          	add    $0x28,%rsp
    36f7:	5b                   	pop    %rbx
    36f8:	5d                   	pop    %rbp
    36f9:	c3                   	retq   
    36fa:	e8 b1 fb ff ff       	callq  32b0 <__stack_chk_fail@plt>

00000000000036ff <phase_3>:
    36ff:	f3 0f 1e fa          	endbr64 
    3703:	48 83 ec 18          	sub    $0x18,%rsp
    3707:	64 48 8b 04 25 28 00 	mov    %fs:0x28,%rax
    370e:	00 00 
    3710:	48 89 44 24 08       	mov    %rax,0x8(%rsp)
    3715:	31 c0                	xor    %eax,%eax
    3717:	48 8d 4c 24 04       	lea    0x4(%rsp),%rcx
    371c:	48 89 e2             	mov    %rsp,%rdx
    371f:	48 8d 35 2e 2e 00 00 	lea    0x2e2e(%rip),%rsi        # 6554 <array.3483+0x314>
    3726:	e8 35 fc ff ff       	callq  3360 <__isoc99_sscanf@plt>
    372b:	83 f8 01             	cmp    $0x1,%eax
    372e:	7e 1e                	jle    374e <phase_3+0x4f>
    3730:	83 3c 24 07          	cmpl   $0x7,(%rsp)
    3734:	0f 87 96 00 00 00    	ja     37d0 <phase_3+0xd1>
    373a:	8b 04 24             	mov    (%rsp),%eax
    373d:	48 8d 15 dc 2a 00 00 	lea    0x2adc(%rip),%rdx        # 6220 <_IO_stdin_used+0x220>
    3744:	48 63 04 82          	movslq (%rdx,%rax,4),%rax
    3748:	48 01 d0             	add    %rdx,%rax
    374b:	3e ff e0             	notrack jmpq *%rax
    374e:	e8 33 0b 00 00       	callq  4286 <explode_bomb>
    3753:	eb db                	jmp    3730 <phase_3+0x31>
    3755:	b8 54 02 00 00       	mov    $0x254,%eax
    375a:	83 e8 53             	sub    $0x53,%eax
    375d:	83 c0 7a             	add    $0x7a,%eax
    3760:	2d 47 01 00 00       	sub    $0x147,%eax
    3765:	05 47 01 00 00       	add    $0x147,%eax
    376a:	2d 47 01 00 00       	sub    $0x147,%eax
    376f:	05 47 01 00 00       	add    $0x147,%eax
    3774:	2d 47 01 00 00       	sub    $0x147,%eax
    3779:	83 3c 24 05          	cmpl   $0x5,(%rsp)
    377d:	7f 06                	jg     3785 <phase_3+0x86>
    377f:	39 44 24 04          	cmp    %eax,0x4(%rsp)
    3783:	74 05                	je     378a <phase_3+0x8b>
    3785:	e8 fc 0a 00 00       	callq  4286 <explode_bomb>
    378a:	48 8b 44 24 08       	mov    0x8(%rsp),%rax
    378f:	64 48 33 04 25 28 00 	xor    %fs:0x28,%rax
    3796:	00 00 
    3798:	75 42                	jne    37dc <phase_3+0xdd>
    379a:	48 83 c4 18          	add    $0x18,%rsp
    379e:	c3                   	retq   
    379f:	b8 00 00 00 00       	mov    $0x0,%eax
    37a4:	eb b4                	jmp    375a <phase_3+0x5b>
    37a6:	b8 00 00 00 00       	mov    $0x0,%eax
    37ab:	eb b0                	jmp    375d <phase_3+0x5e>
    37ad:	b8 00 00 00 00       	mov    $0x0,%eax
    37b2:	eb ac                	jmp    3760 <phase_3+0x61>
    37b4:	b8 00 00 00 00       	mov    $0x0,%eax
    37b9:	eb aa                	jmp    3765 <phase_3+0x66>
    37bb:	b8 00 00 00 00       	mov    $0x0,%eax
    37c0:	eb a8                	jmp    376a <phase_3+0x6b>
    37c2:	b8 00 00 00 00       	mov    $0x0,%eax
    37c7:	eb a6                	jmp    376f <phase_3+0x70>
    37c9:	b8 00 00 00 00       	mov    $0x0,%eax
    37ce:	eb a4                	jmp    3774 <phase_3+0x75>
    37d0:	e8 b1 0a 00 00       	callq  4286 <explode_bomb>
    37d5:	b8 00 00 00 00       	mov    $0x0,%eax
    37da:	eb 9d                	jmp    3779 <phase_3+0x7a>
    37dc:	e8 cf fa ff ff       	callq  32b0 <__stack_chk_fail@plt>

00000000000037e1 <func4>:
    37e1:	f3 0f 1e fa          	endbr64 
    37e5:	53                   	push   %rbx
    37e6:	89 d0                	mov    %edx,%eax
    37e8:	29 f0                	sub    %esi,%eax
    37ea:	89 c3                	mov    %eax,%ebx
    37ec:	c1 eb 1f             	shr    $0x1f,%ebx
    37ef:	01 c3                	add    %eax,%ebx
    37f1:	d1 fb                	sar    %ebx
    37f3:	01 f3                	add    %esi,%ebx
    37f5:	39 fb                	cmp    %edi,%ebx
    37f7:	7f 06                	jg     37ff <func4+0x1e>
    37f9:	7c 10                	jl     380b <func4+0x2a>
    37fb:	89 d8                	mov    %ebx,%eax
    37fd:	5b                   	pop    %rbx
    37fe:	c3                   	retq   
    37ff:	8d 53 ff             	lea    -0x1(%rbx),%edx
    3802:	e8 da ff ff ff       	callq  37e1 <func4>
    3807:	01 c3                	add    %eax,%ebx
    3809:	eb f0                	jmp    37fb <func4+0x1a>
    380b:	8d 73 01             	lea    0x1(%rbx),%esi
    380e:	e8 ce ff ff ff       	callq  37e1 <func4>
    3813:	01 c3                	add    %eax,%ebx
    3815:	eb e4                	jmp    37fb <func4+0x1a>

0000000000003817 <phase_4>:
    3817:	f3 0f 1e fa          	endbr64 
    381b:	48 83 ec 18          	sub    $0x18,%rsp
    381f:	64 48 8b 04 25 28 00 	mov    %fs:0x28,%rax
    3826:	00 00 
    3828:	48 89 44 24 08       	mov    %rax,0x8(%rsp)
    382d:	31 c0                	xor    %eax,%eax
    382f:	48 8d 4c 24 04       	lea    0x4(%rsp),%rcx
    3834:	48 89 e2             	mov    %rsp,%rdx
    3837:	48 8d 35 16 2d 00 00 	lea    0x2d16(%rip),%rsi        # 6554 <array.3483+0x314>
    383e:	e8 1d fb ff ff       	callq  3360 <__isoc99_sscanf@plt>
    3843:	83 f8 02             	cmp    $0x2,%eax
    3846:	75 06                	jne    384e <phase_4+0x37>
    3848:	83 3c 24 0e          	cmpl   $0xe,(%rsp)
    384c:	76 05                	jbe    3853 <phase_4+0x3c>
    384e:	e8 33 0a 00 00       	callq  4286 <explode_bomb>
    3853:	ba 0e 00 00 00       	mov    $0xe,%edx
    3858:	be 00 00 00 00       	mov    $0x0,%esi
    385d:	8b 3c 24             	mov    (%rsp),%edi
    3860:	e8 7c ff ff ff       	callq  37e1 <func4>
    3865:	83 f8 23             	cmp    $0x23,%eax
    3868:	75 07                	jne    3871 <phase_4+0x5a>
    386a:	83 7c 24 04 23       	cmpl   $0x23,0x4(%rsp)
    386f:	74 05                	je     3876 <phase_4+0x5f>
    3871:	e8 10 0a 00 00       	callq  4286 <explode_bomb>
    3876:	48 8b 44 24 08       	mov    0x8(%rsp),%rax
    387b:	64 48 33 04 25 28 00 	xor    %fs:0x28,%rax
    3882:	00 00 
    3884:	75 05                	jne    388b <phase_4+0x74>
    3886:	48 83 c4 18          	add    $0x18,%rsp
    388a:	c3                   	retq   
    388b:	e8 20 fa ff ff       	callq  32b0 <__stack_chk_fail@plt>

0000000000003890 <phase_5>:
    3890:	f3 0f 1e fa          	endbr64 
    3894:	48 83 ec 18          	sub    $0x18,%rsp
    3898:	64 48 8b 04 25 28 00 	mov    %fs:0x28,%rax
    389f:	00 00 
    38a1:	48 89 44 24 08       	mov    %rax,0x8(%rsp)
    38a6:	31 c0                	xor    %eax,%eax
    38a8:	48 8d 4c 24 04       	lea    0x4(%rsp),%rcx
    38ad:	48 89 e2             	mov    %rsp,%rdx
    38b0:	48 8d 35 9d 2c 00 00 	lea    0x2c9d(%rip),%rsi        # 6554 <array.3483+0x314>
    38b7:	e8 a4 fa ff ff       	callq  3360 <__isoc99_sscanf@plt>
    38bc:	83 f8 01             	cmp    $0x1,%eax
    38bf:	7e 5a                	jle    391b <phase_5+0x8b>
    38c1:	8b 04 24             	mov    (%rsp),%eax
    38c4:	83 e0 0f             	and    $0xf,%eax
    38c7:	89 04 24             	mov    %eax,(%rsp)
    38ca:	83 f8 0f             	cmp    $0xf,%eax
    38cd:	74 32                	je     3901 <phase_5+0x71>
    38cf:	b9 96 00 00 00       	mov    $0x96,%ecx
    38d4:	ba 00 00 00 00       	mov    $0x0,%edx
    38d9:	48 8d 35 60 29 00 00 	lea    0x2960(%rip),%rsi        # 6240 <array.3483>
    38e0:	83 c2 01             	add    $0x1,%edx
    38e3:	48 98                	cltq   
    38e5:	8b 04 86             	mov    (%rsi,%rax,4),%eax
    38e8:	29 c1                	sub    %eax,%ecx
    38ea:	83 f8 0f             	cmp    $0xf,%eax
    38ed:	75 f1                	jne    38e0 <phase_5+0x50>
    38ef:	c7 04 24 0f 00 00 00 	movl   $0xf,(%rsp)
    38f6:	83 fa 0f             	cmp    $0xf,%edx
    38f9:	75 06                	jne    3901 <phase_5+0x71>
    38fb:	39 4c 24 04          	cmp    %ecx,0x4(%rsp)
    38ff:	74 05                	je     3906 <phase_5+0x76>
    3901:	e8 80 09 00 00       	callq  4286 <explode_bomb>
    3906:	48 8b 44 24 08       	mov    0x8(%rsp),%rax
    390b:	64 48 33 04 25 28 00 	xor    %fs:0x28,%rax
    3912:	00 00 
    3914:	75 0c                	jne    3922 <phase_5+0x92>
    3916:	48 83 c4 18          	add    $0x18,%rsp
    391a:	c3                   	retq   
    391b:	e8 66 09 00 00       	callq  4286 <explode_bomb>
    3920:	eb 9f                	jmp    38c1 <phase_5+0x31>
    3922:	e8 89 f9 ff ff       	callq  32b0 <__stack_chk_fail@plt>

0000000000003927 <hashcode>:
    3927:	f3 0f 1e fa          	endbr64 
    392b:	48 83 ec 18          	sub    $0x18,%rsp
    392f:	64 48 8b 04 25 28 00 	mov    %fs:0x28,%rax
    3936:	00 00 
    3938:	48 89 44 24 08       	mov    %rax,0x8(%rsp)
    393d:	31 c0                	xor    %eax,%eax
    393f:	48 c7 04 24 00 00 00 	movq   $0x0,(%rsp)
    3946:	00 
    3947:	0f b6 14 07          	movzbl (%rdi,%rax,1),%edx
    394b:	84 d2                	test   %dl,%dl
    394d:	74 0d                	je     395c <hashcode+0x35>
    394f:	88 14 04             	mov    %dl,(%rsp,%rax,1)
    3952:	48 83 c0 01          	add    $0x1,%rax
    3956:	48 83 f8 08          	cmp    $0x8,%rax
    395a:	75 eb                	jne    3947 <hashcode+0x20>
    395c:	48 8b 04 24          	mov    (%rsp),%rax
    3960:	48 8b 4c 24 08       	mov    0x8(%rsp),%rcx
    3965:	64 48 33 0c 25 28 00 	xor    %fs:0x28,%rcx
    396c:	00 00 
    396e:	75 05                	jne    3975 <hashcode+0x4e>
    3970:	48 83 c4 18          	add    $0x18,%rsp
    3974:	c3                   	retq   
    3975:	e8 36 f9 ff ff       	callq  32b0 <__stack_chk_fail@plt>

000000000000397a <insert>:
    397a:	f3 0f 1e fa          	endbr64 
    397e:	41 57                	push   %r15
    3980:	41 56                	push   %r14
    3982:	41 55                	push   %r13
    3984:	41 54                	push   %r12
    3986:	55                   	push   %rbp
    3987:	53                   	push   %rbx
    3988:	48 83 ec 28          	sub    $0x28,%rsp
    398c:	89 7c 24 1c          	mov    %edi,0x1c(%rsp)
    3990:	48 89 34 24          	mov    %rsi,(%rsp)
    3994:	48 89 54 24 08       	mov    %rdx,0x8(%rsp)
    3999:	85 ff                	test   %edi,%edi
    399b:	0f 8e 69 01 00 00    	jle    3b0a <insert+0x190>
    39a1:	49 89 ce             	mov    %rcx,%r14
    39a4:	8d 47 ff             	lea    -0x1(%rdi),%eax
    39a7:	48 89 44 24 10       	mov    %rax,0x10(%rsp)
    39ac:	41 bd 00 00 00 00    	mov    $0x0,%r13d
    39b2:	e9 96 00 00 00       	jmpq   3a4d <insert+0xd3>
    39b7:	45 89 ec             	mov    %r13d,%r12d
    39ba:	41 c1 ec 1f          	shr    $0x1f,%r12d
    39be:	45 01 ec             	add    %r13d,%r12d
    39c1:	41 d1 fc             	sar    %r12d
    39c4:	e9 bc 00 00 00       	jmpq   3a85 <insert+0x10b>
    39c9:	48 89 c3             	mov    %rax,%rbx
    39cc:	48 89 ee             	mov    %rbp,%rsi
    39cf:	48 89 df             	mov    %rbx,%rdi
    39d2:	e8 29 f9 ff ff       	callq  3300 <strcmp@plt>
    39d7:	85 c0                	test   %eax,%eax
    39d9:	0f 84 0e 01 00 00    	je     3aed <insert+0x173>
    39df:	48 8b 83 00 01 00 00 	mov    0x100(%rbx),%rax
    39e6:	48 85 c0             	test   %rax,%rax
    39e9:	75 de                	jne    39c9 <insert+0x4f>
    39eb:	bf 08 01 00 00       	mov    $0x108,%edi
    39f0:	e8 5b f9 ff ff       	callq  3350 <malloc@plt>
    39f5:	49 89 c7             	mov    %rax,%r15
    39f8:	ba 80 00 00 00       	mov    $0x80,%edx
    39fd:	48 89 ee             	mov    %rbp,%rsi
    3a00:	48 89 c7             	mov    %rax,%rdi
    3a03:	e8 68 f9 ff ff       	callq  3370 <__strcpy_chk@plt>
    3a08:	4d 63 e4             	movslq %r12d,%r12
    3a0b:	48 8b 44 24 08       	mov    0x8(%rsp),%rax
    3a10:	4a 8b 34 e0          	mov    (%rax,%r12,8),%rsi
    3a14:	49 8d bf 80 00 00 00 	lea    0x80(%r15),%rdi
    3a1b:	ba 80 00 00 00       	mov    $0x80,%edx
    3a20:	e8 4b f9 ff ff       	callq  3370 <__strcpy_chk@plt>
    3a25:	49 c7 87 00 01 00 00 	movq   $0x0,0x100(%r15)
    3a2c:	00 00 00 00 
    3a30:	4c 89 bb 00 01 00 00 	mov    %r15,0x100(%rbx)
    3a37:	41 83 06 01          	addl   $0x1,(%r14)
    3a3b:	49 8d 45 01          	lea    0x1(%r13),%rax
    3a3f:	4c 39 6c 24 10       	cmp    %r13,0x10(%rsp)
    3a44:	0f 84 c0 00 00 00    	je     3b0a <insert+0x190>
    3a4a:	49 89 c5             	mov    %rax,%r13
    3a4d:	48 8b 04 24          	mov    (%rsp),%rax
    3a51:	4a 8b 2c e8          	mov    (%rax,%r13,8),%rbp
    3a55:	48 89 ef             	mov    %rbp,%rdi
    3a58:	e8 ca fe ff ff       	callq  3927 <hashcode>
    3a5d:	49 63 4e 04          	movslq 0x4(%r14),%rcx
    3a61:	48 99                	cqto   
    3a63:	48 f7 f9             	idiv   %rcx
    3a66:	41 f6 c5 01          	test   $0x1,%r13b
    3a6a:	0f 84 47 ff ff ff    	je     39b7 <insert+0x3d>
    3a70:	41 8d 4d 01          	lea    0x1(%r13),%ecx
    3a74:	89 c8                	mov    %ecx,%eax
    3a76:	c1 e8 1f             	shr    $0x1f,%eax
    3a79:	01 c8                	add    %ecx,%eax
    3a7b:	d1 f8                	sar    %eax
    3a7d:	44 8b 64 24 1c       	mov    0x1c(%rsp),%r12d
    3a82:	41 29 c4             	sub    %eax,%r12d
    3a85:	48 63 d2             	movslq %edx,%rdx
    3a88:	49 8b 46 08          	mov    0x8(%r14),%rax
    3a8c:	4c 8d 3c d0          	lea    (%rax,%rdx,8),%r15
    3a90:	49 8b 1f             	mov    (%r15),%rbx
    3a93:	48 85 db             	test   %rbx,%rbx
    3a96:	0f 85 30 ff ff ff    	jne    39cc <insert+0x52>
    3a9c:	bf 08 01 00 00       	mov    $0x108,%edi
    3aa1:	e8 aa f8 ff ff       	callq  3350 <malloc@plt>
    3aa6:	48 89 c3             	mov    %rax,%rbx
    3aa9:	ba 80 00 00 00       	mov    $0x80,%edx
    3aae:	48 89 ee             	mov    %rbp,%rsi
    3ab1:	48 89 c7             	mov    %rax,%rdi
    3ab4:	e8 b7 f8 ff ff       	callq  3370 <__strcpy_chk@plt>
    3ab9:	4d 63 e4             	movslq %r12d,%r12
    3abc:	48 8b 44 24 08       	mov    0x8(%rsp),%rax
    3ac1:	4a 8b 34 e0          	mov    (%rax,%r12,8),%rsi
    3ac5:	48 8d bb 80 00 00 00 	lea    0x80(%rbx),%rdi
    3acc:	ba 80 00 00 00       	mov    $0x80,%edx
    3ad1:	e8 9a f8 ff ff       	callq  3370 <__strcpy_chk@plt>
    3ad6:	48 c7 83 00 01 00 00 	movq   $0x0,0x100(%rbx)
    3add:	00 00 00 00 
    3ae1:	49 89 1f             	mov    %rbx,(%r15)
    3ae4:	41 83 06 01          	addl   $0x1,(%r14)
    3ae8:	e9 4e ff ff ff       	jmpq   3a3b <insert+0xc1>
    3aed:	4d 63 e4             	movslq %r12d,%r12
    3af0:	48 8b 44 24 08       	mov    0x8(%rsp),%rax
    3af5:	4a 8b 34 e0          	mov    (%rax,%r12,8),%rsi
    3af9:	48 8d bb 80 00 00 00 	lea    0x80(%rbx),%rdi
    3b00:	ba 80 00 00 00       	mov    $0x80,%edx
    3b05:	e8 66 f8 ff ff       	callq  3370 <__strcpy_chk@plt>
    3b0a:	48 83 c4 28          	add    $0x28,%rsp
    3b0e:	5b                   	pop    %rbx
    3b0f:	5d                   	pop    %rbp
    3b10:	41 5c                	pop    %r12
    3b12:	41 5d                	pop    %r13
    3b14:	41 5e                	pop    %r14
    3b16:	41 5f                	pop    %r15
    3b18:	c3                   	retq   

0000000000003b19 <get>:
    3b19:	f3 0f 1e fa          	endbr64 
    3b1d:	55                   	push   %rbp
    3b1e:	53                   	push   %rbx
    3b1f:	48 83 ec 08          	sub    $0x8,%rsp
    3b23:	48 89 fd             	mov    %rdi,%rbp
    3b26:	48 89 f3             	mov    %rsi,%rbx
    3b29:	e8 f9 fd ff ff       	callq  3927 <hashcode>
    3b2e:	48 63 4b 04          	movslq 0x4(%rbx),%rcx
    3b32:	48 99                	cqto   
    3b34:	48 f7 f9             	idiv   %rcx
    3b37:	48 63 d2             	movslq %edx,%rdx
    3b3a:	48 8b 43 08          	mov    0x8(%rbx),%rax
    3b3e:	48 8b 1c d0          	mov    (%rax,%rdx,8),%rbx
    3b42:	48 85 db             	test   %rbx,%rbx
    3b45:	74 21                	je     3b68 <get+0x4f>
    3b47:	48 89 ee             	mov    %rbp,%rsi
    3b4a:	48 89 df             	mov    %rbx,%rdi
    3b4d:	e8 ae f7 ff ff       	callq  3300 <strcmp@plt>
    3b52:	85 c0                	test   %eax,%eax
    3b54:	74 0e                	je     3b64 <get+0x4b>
    3b56:	48 8b 9b 00 01 00 00 	mov    0x100(%rbx),%rbx
    3b5d:	48 85 db             	test   %rbx,%rbx
    3b60:	75 e5                	jne    3b47 <get+0x2e>
    3b62:	eb 04                	jmp    3b68 <get+0x4f>
    3b64:	48 83 eb 80          	sub    $0xffffffffffffff80,%rbx
    3b68:	48 89 d8             	mov    %rbx,%rax
    3b6b:	48 83 c4 08          	add    $0x8,%rsp
    3b6f:	5b                   	pop    %rbx
    3b70:	5d                   	pop    %rbp
    3b71:	c3                   	retq   

0000000000003b72 <prep6>:
    3b72:	f3 0f 1e fa          	endbr64 
    3b76:	55                   	push   %rbp
    3b77:	53                   	push   %rbx
    3b78:	48 81 ec 88 00 00 00 	sub    $0x88,%rsp
    3b7f:	48 89 fb             	mov    %rdi,%rbx
    3b82:	bd 28 00 00 00       	mov    $0x28,%ebp
    3b87:	64 48 8b 45 00       	mov    %fs:0x0(%rbp),%rax
    3b8c:	48 89 44 24 78       	mov    %rax,0x78(%rsp)
    3b91:	31 c0                	xor    %eax,%eax
    3b93:	c7 07 00 00 00 00    	movl   $0x0,(%rdi)
    3b99:	c7 47 04 05 00 00 00 	movl   $0x5,0x4(%rdi)
    3ba0:	bf 28 00 00 00       	mov    $0x28,%edi
    3ba5:	e8 a6 f7 ff ff       	callq  3350 <malloc@plt>
    3baa:	48 89 43 08          	mov    %rax,0x8(%rbx)
    3bae:	48 c7 00 00 00 00 00 	movq   $0x0,(%rax)
    3bb5:	48 c7 40 08 00 00 00 	movq   $0x0,0x8(%rax)
    3bbc:	00 
    3bbd:	48 c7 40 10 00 00 00 	movq   $0x0,0x10(%rax)
    3bc4:	00 
    3bc5:	48 c7 40 18 00 00 00 	movq   $0x0,0x18(%rax)
    3bcc:	00 
    3bcd:	48 c7 40 20 00 00 00 	movq   $0x0,0x20(%rax)
    3bd4:	00 
    3bd5:	48 8d 05 d2 25 00 00 	lea    0x25d2(%rip),%rax        # 61ae <_IO_stdin_used+0x1ae>
    3bdc:	48 89 04 24          	mov    %rax,(%rsp)
    3be0:	48 8d 05 cd 25 00 00 	lea    0x25cd(%rip),%rax        # 61b4 <_IO_stdin_used+0x1b4>
    3be7:	48 89 44 24 08       	mov    %rax,0x8(%rsp)
    3bec:	48 8d 05 c7 25 00 00 	lea    0x25c7(%rip),%rax        # 61ba <_IO_stdin_used+0x1ba>
    3bf3:	48 89 44 24 10       	mov    %rax,0x10(%rsp)
    3bf8:	48 8d 05 c4 25 00 00 	lea    0x25c4(%rip),%rax        # 61c3 <_IO_stdin_used+0x1c3>
    3bff:	48 89 44 24 18       	mov    %rax,0x18(%rsp)
    3c04:	48 8d 05 bf 25 00 00 	lea    0x25bf(%rip),%rax        # 61ca <_IO_stdin_used+0x1ca>
    3c0b:	48 89 44 24 20       	mov    %rax,0x20(%rsp)
    3c10:	48 8d 05 b7 25 00 00 	lea    0x25b7(%rip),%rax        # 61ce <_IO_stdin_used+0x1ce>
    3c17:	48 89 44 24 28       	mov    %rax,0x28(%rsp)
    3c1c:	48 8d 05 b0 25 00 00 	lea    0x25b0(%rip),%rax        # 61d3 <_IO_stdin_used+0x1d3>
    3c23:	48 89 44 24 30       	mov    %rax,0x30(%rsp)
    3c28:	48 8d 05 aa 25 00 00 	lea    0x25aa(%rip),%rax        # 61d9 <_IO_stdin_used+0x1d9>
    3c2f:	48 89 44 24 40       	mov    %rax,0x40(%rsp)
    3c34:	48 8d 05 a3 25 00 00 	lea    0x25a3(%rip),%rax        # 61de <_IO_stdin_used+0x1de>
    3c3b:	48 89 44 24 48       	mov    %rax,0x48(%rsp)
    3c40:	48 8d 05 9c 25 00 00 	lea    0x259c(%rip),%rax        # 61e3 <_IO_stdin_used+0x1e3>
    3c47:	48 89 44 24 50       	mov    %rax,0x50(%rsp)
    3c4c:	48 8d 05 94 25 00 00 	lea    0x2594(%rip),%rax        # 61e7 <_IO_stdin_used+0x1e7>
    3c53:	48 89 44 24 58       	mov    %rax,0x58(%rsp)
    3c58:	48 8d 05 8d 25 00 00 	lea    0x258d(%rip),%rax        # 61ec <_IO_stdin_used+0x1ec>
    3c5f:	48 89 44 24 60       	mov    %rax,0x60(%rsp)
    3c64:	48 8d 05 87 25 00 00 	lea    0x2587(%rip),%rax        # 61f2 <_IO_stdin_used+0x1f2>
    3c6b:	48 89 44 24 68       	mov    %rax,0x68(%rsp)
    3c70:	48 8d 05 82 25 00 00 	lea    0x2582(%rip),%rax        # 61f9 <_IO_stdin_used+0x1f9>
    3c77:	48 89 44 24 70       	mov    %rax,0x70(%rsp)
    3c7c:	48 8d 54 24 40       	lea    0x40(%rsp),%rdx
    3c81:	48 89 e6             	mov    %rsp,%rsi
    3c84:	48 89 d9             	mov    %rbx,%rcx
    3c87:	bf 07 00 00 00       	mov    $0x7,%edi
    3c8c:	e8 e9 fc ff ff       	callq  397a <insert>
    3c91:	48 8b 44 24 78       	mov    0x78(%rsp),%rax
    3c96:	64 48 33 45 00       	xor    %fs:0x0(%rbp),%rax
    3c9b:	75 0a                	jne    3ca7 <prep6+0x135>
    3c9d:	48 81 c4 88 00 00 00 	add    $0x88,%rsp
    3ca4:	5b                   	pop    %rbx
    3ca5:	5d                   	pop    %rbp
    3ca6:	c3                   	retq   
    3ca7:	e8 04 f6 ff ff       	callq  32b0 <__stack_chk_fail@plt>

0000000000003cac <phase_6>:
    3cac:	f3 0f 1e fa          	endbr64 
    3cb0:	41 56                	push   %r14
    3cb2:	41 55                	push   %r13
    3cb4:	41 54                	push   %r12
    3cb6:	55                   	push   %rbp
    3cb7:	53                   	push   %rbx
    3cb8:	48 81 ec c0 01 00 00 	sub    $0x1c0,%rsp
    3cbf:	64 48 8b 04 25 28 00 	mov    %fs:0x28,%rax
    3cc6:	00 00 
    3cc8:	48 89 84 24 b8 01 00 	mov    %rax,0x1b8(%rsp)
    3ccf:	00 
    3cd0:	31 c0                	xor    %eax,%eax
    3cd2:	48 8d 54 24 30       	lea    0x30(%rsp),%rdx
    3cd7:	48 89 54 24 10       	mov    %rdx,0x10(%rsp)
    3cdc:	48 8d 8c 24 b0 00 00 	lea    0xb0(%rsp),%rcx
    3ce3:	00 
    3ce4:	48 89 4c 24 18       	mov    %rcx,0x18(%rsp)
    3ce9:	4c 8d 84 24 30 01 00 	lea    0x130(%rsp),%r8
    3cf0:	00 
    3cf1:	4c 89 44 24 20       	mov    %r8,0x20(%rsp)
    3cf6:	48 8d 35 03 25 00 00 	lea    0x2503(%rip),%rsi        # 6200 <_IO_stdin_used+0x200>
    3cfd:	e8 5e f6 ff ff       	callq  3360 <__isoc99_sscanf@plt>
    3d02:	83 f8 03             	cmp    $0x3,%eax
    3d05:	75 59                	jne    3d60 <phase_6+0xb4>
    3d07:	48 8d b4 24 b0 00 00 	lea    0xb0(%rsp),%rsi
    3d0e:	00 
    3d0f:	48 8d 7c 24 30       	lea    0x30(%rsp),%rdi
    3d14:	e8 e7 f5 ff ff       	callq  3300 <strcmp@plt>
    3d19:	85 c0                	test   %eax,%eax
    3d1b:	79 4a                	jns    3d67 <phase_6+0xbb>
    3d1d:	48 8d b4 24 30 01 00 	lea    0x130(%rsp),%rsi
    3d24:	00 
    3d25:	48 8d bc 24 b0 00 00 	lea    0xb0(%rsp),%rdi
    3d2c:	00 
    3d2d:	e8 ce f5 ff ff       	callq  3300 <strcmp@plt>
    3d32:	85 c0                	test   %eax,%eax
    3d34:	79 38                	jns    3d6e <phase_6+0xc2>
    3d36:	48 89 e3             	mov    %rsp,%rbx
    3d39:	48 89 df             	mov    %rbx,%rdi
    3d3c:	e8 31 fe ff ff       	callq  3b72 <prep6>
    3d41:	48 8d 7c 24 30       	lea    0x30(%rsp),%rdi
    3d46:	48 89 de             	mov    %rbx,%rsi
    3d49:	e8 cb fd ff ff       	callq  3b19 <get>
    3d4e:	48 89 c3             	mov    %rax,%rbx
    3d51:	48 8d 6c 24 10       	lea    0x10(%rsp),%rbp
    3d56:	4c 8d 74 24 20       	lea    0x20(%rsp),%r14
    3d5b:	49 89 e5             	mov    %rsp,%r13
    3d5e:	eb 23                	jmp    3d83 <phase_6+0xd7>
    3d60:	e8 21 05 00 00       	callq  4286 <explode_bomb>
    3d65:	eb a0                	jmp    3d07 <phase_6+0x5b>
    3d67:	e8 1a 05 00 00       	callq  4286 <explode_bomb>
    3d6c:	eb af                	jmp    3d1d <phase_6+0x71>
    3d6e:	e8 13 05 00 00       	callq  4286 <explode_bomb>
    3d73:	eb c1                	jmp    3d36 <phase_6+0x8a>
    3d75:	e8 0c 05 00 00       	callq  4286 <explode_bomb>
    3d7a:	48 83 c5 08          	add    $0x8,%rbp
    3d7e:	49 39 ee             	cmp    %rbp,%r14
    3d81:	74 2d                	je     3db0 <phase_6+0x104>
    3d83:	49 89 dc             	mov    %rbx,%r12
    3d86:	48 8b 7d 08          	mov    0x8(%rbp),%rdi
    3d8a:	4c 89 ee             	mov    %r13,%rsi
    3d8d:	e8 87 fd ff ff       	callq  3b19 <get>
    3d92:	48 89 c3             	mov    %rax,%rbx
    3d95:	4d 85 e4             	test   %r12,%r12
    3d98:	74 db                	je     3d75 <phase_6+0xc9>
    3d9a:	48 85 c0             	test   %rax,%rax
    3d9d:	74 d6                	je     3d75 <phase_6+0xc9>
    3d9f:	48 89 c6             	mov    %rax,%rsi
    3da2:	4c 89 e7             	mov    %r12,%rdi
    3da5:	e8 56 f5 ff ff       	callq  3300 <strcmp@plt>
    3daa:	85 c0                	test   %eax,%eax
    3dac:	7f cc                	jg     3d7a <phase_6+0xce>
    3dae:	eb c5                	jmp    3d75 <phase_6+0xc9>
    3db0:	48 8b 84 24 b8 01 00 	mov    0x1b8(%rsp),%rax
    3db7:	00 
    3db8:	64 48 33 04 25 28 00 	xor    %fs:0x28,%rax
    3dbf:	00 00 
    3dc1:	75 10                	jne    3dd3 <phase_6+0x127>
    3dc3:	48 81 c4 c0 01 00 00 	add    $0x1c0,%rsp
    3dca:	5b                   	pop    %rbx
    3dcb:	5d                   	pop    %rbp
    3dcc:	41 5c                	pop    %r12
    3dce:	41 5d                	pop    %r13
    3dd0:	41 5e                	pop    %r14
    3dd2:	c3                   	retq   
    3dd3:	e8 d8 f4 ff ff       	callq  32b0 <__stack_chk_fail@plt>

0000000000003dd8 <fun7>:
    3dd8:	f3 0f 1e fa          	endbr64 
    3ddc:	48 85 ff             	test   %rdi,%rdi
    3ddf:	74 32                	je     3e13 <fun7+0x3b>
    3de1:	48 83 ec 08          	sub    $0x8,%rsp
    3de5:	8b 17                	mov    (%rdi),%edx
    3de7:	39 f2                	cmp    %esi,%edx
    3de9:	7f 0c                	jg     3df7 <fun7+0x1f>
    3deb:	b8 00 00 00 00       	mov    $0x0,%eax
    3df0:	75 12                	jne    3e04 <fun7+0x2c>
    3df2:	48 83 c4 08          	add    $0x8,%rsp
    3df6:	c3                   	retq   
    3df7:	48 8b 7f 08          	mov    0x8(%rdi),%rdi
    3dfb:	e8 d8 ff ff ff       	callq  3dd8 <fun7>
    3e00:	01 c0                	add    %eax,%eax
    3e02:	eb ee                	jmp    3df2 <fun7+0x1a>
    3e04:	48 8b 7f 10          	mov    0x10(%rdi),%rdi
    3e08:	e8 cb ff ff ff       	callq  3dd8 <fun7>
    3e0d:	8d 44 00 01          	lea    0x1(%rax,%rax,1),%eax
    3e11:	eb df                	jmp    3df2 <fun7+0x1a>
    3e13:	b8 ff ff ff ff       	mov    $0xffffffff,%eax
    3e18:	c3                   	retq   

0000000000003e19 <secret_phase>:
    3e19:	f3 0f 1e fa          	endbr64 
    3e1d:	53                   	push   %rbx
    3e1e:	e8 ea 04 00 00       	callq  430d <read_line>
    3e23:	48 89 c7             	mov    %rax,%rdi
    3e26:	ba 0a 00 00 00       	mov    $0xa,%edx
    3e2b:	be 00 00 00 00       	mov    $0x0,%esi
    3e30:	e8 0b f5 ff ff       	callq  3340 <strtol@plt>
    3e35:	48 89 c3             	mov    %rax,%rbx
    3e38:	8d 40 ff             	lea    -0x1(%rax),%eax
    3e3b:	3d e8 03 00 00       	cmp    $0x3e8,%eax
    3e40:	77 26                	ja     3e68 <secret_phase+0x4f>
    3e42:	89 de                	mov    %ebx,%esi
    3e44:	48 8d 3d f5 62 00 00 	lea    0x62f5(%rip),%rdi        # a140 <n1>
    3e4b:	e8 88 ff ff ff       	callq  3dd8 <fun7>
    3e50:	83 f8 06             	cmp    $0x6,%eax
    3e53:	75 1a                	jne    3e6f <secret_phase+0x56>
    3e55:	48 8d 3d 2c 23 00 00 	lea    0x232c(%rip),%rdi        # 6188 <_IO_stdin_used+0x188>
    3e5c:	e8 2f f4 ff ff       	callq  3290 <puts@plt>
    3e61:	e8 0a 06 00 00       	callq  4470 <phase_defused>
    3e66:	5b                   	pop    %rbx
    3e67:	c3                   	retq   
    3e68:	e8 19 04 00 00       	callq  4286 <explode_bomb>
    3e6d:	eb d3                	jmp    3e42 <secret_phase+0x29>
    3e6f:	e8 12 04 00 00       	callq  4286 <explode_bomb>
    3e74:	eb df                	jmp    3e55 <secret_phase+0x3c>

0000000000003e76 <sig_handler>:
    3e76:	f3 0f 1e fa          	endbr64 
    3e7a:	50                   	push   %rax
    3e7b:	58                   	pop    %rax
    3e7c:	48 83 ec 08          	sub    $0x8,%rsp
    3e80:	bf 0a 00 00 00       	mov    $0xa,%edi
    3e85:	e8 c6 f3 ff ff       	callq  3250 <putchar@plt>
    3e8a:	48 8d 3d ef 23 00 00 	lea    0x23ef(%rip),%rdi        # 6280 <array.3483+0x40>
    3e91:	e8 fa f3 ff ff       	callq  3290 <puts@plt>
    3e96:	48 8d 3d 07 30 00 00 	lea    0x3007(%rip),%rdi        # 6ea4 <array.3483+0xc64>
    3e9d:	e8 ee f3 ff ff       	callq  3290 <puts@plt>
    3ea2:	bf 01 00 00 00       	mov    $0x1,%edi
    3ea7:	e8 34 f5 ff ff       	callq  33e0 <sleep@plt>
    3eac:	48 8d 3d e2 2f 00 00 	lea    0x2fe2(%rip),%rdi        # 6e95 <array.3483+0xc55>
    3eb3:	e8 d8 f3 ff ff       	callq  3290 <puts@plt>
    3eb8:	bf 01 00 00 00       	mov    $0x1,%edi
    3ebd:	e8 1e f5 ff ff       	callq  33e0 <sleep@plt>
    3ec2:	48 8d 3d bd 2f 00 00 	lea    0x2fbd(%rip),%rdi        # 6e86 <array.3483+0xc46>
    3ec9:	e8 c2 f3 ff ff       	callq  3290 <puts@plt>
    3ece:	bf 01 00 00 00       	mov    $0x1,%edi
    3ed3:	e8 08 f5 ff ff       	callq  33e0 <sleep@plt>
    3ed8:	48 8d 3d c9 23 00 00 	lea    0x23c9(%rip),%rdi        # 62a8 <array.3483+0x68>
    3edf:	e8 ac f3 ff ff       	callq  3290 <puts@plt>
    3ee4:	bf 10 00 00 00       	mov    $0x10,%edi
    3ee9:	e8 c2 f4 ff ff       	callq  33b0 <exit@plt>

0000000000003eee <invalid_phase>:
    3eee:	f3 0f 1e fa          	endbr64 
    3ef2:	50                   	push   %rax
    3ef3:	58                   	pop    %rax
    3ef4:	48 83 ec 08          	sub    $0x8,%rsp
    3ef8:	48 89 fa             	mov    %rdi,%rdx
    3efb:	48 8d 35 bc 25 00 00 	lea    0x25bc(%rip),%rsi        # 64be <array.3483+0x27e>
    3f02:	bf 01 00 00 00       	mov    $0x1,%edi
    3f07:	b8 00 00 00 00       	mov    $0x0,%eax
    3f0c:	e8 6f f4 ff ff       	callq  3380 <__printf_chk@plt>
    3f11:	bf 08 00 00 00       	mov    $0x8,%edi
    3f16:	e8 95 f4 ff ff       	callq  33b0 <exit@plt>

0000000000003f1b <string_length>:
    3f1b:	f3 0f 1e fa          	endbr64 
    3f1f:	80 3f 00             	cmpb   $0x0,(%rdi)
    3f22:	74 12                	je     3f36 <string_length+0x1b>
    3f24:	b8 00 00 00 00       	mov    $0x0,%eax
    3f29:	48 83 c7 01          	add    $0x1,%rdi
    3f2d:	83 c0 01             	add    $0x1,%eax
    3f30:	80 3f 00             	cmpb   $0x0,(%rdi)
    3f33:	75 f4                	jne    3f29 <string_length+0xe>
    3f35:	c3                   	retq   
    3f36:	b8 00 00 00 00       	mov    $0x0,%eax
    3f3b:	c3                   	retq   

0000000000003f3c <strings_not_equal>:
    3f3c:	f3 0f 1e fa          	endbr64 
    3f40:	41 54                	push   %r12
    3f42:	55                   	push   %rbp
    3f43:	53                   	push   %rbx
    3f44:	48 89 fb             	mov    %rdi,%rbx
    3f47:	48 89 f5             	mov    %rsi,%rbp
    3f4a:	e8 cc ff ff ff       	callq  3f1b <string_length>
    3f4f:	41 89 c4             	mov    %eax,%r12d
    3f52:	48 89 ef             	mov    %rbp,%rdi
    3f55:	e8 c1 ff ff ff       	callq  3f1b <string_length>
    3f5a:	89 c2                	mov    %eax,%edx
    3f5c:	b8 01 00 00 00       	mov    $0x1,%eax
    3f61:	41 39 d4             	cmp    %edx,%r12d
    3f64:	75 31                	jne    3f97 <strings_not_equal+0x5b>
    3f66:	0f b6 13             	movzbl (%rbx),%edx
    3f69:	84 d2                	test   %dl,%dl
    3f6b:	74 1e                	je     3f8b <strings_not_equal+0x4f>
    3f6d:	b8 00 00 00 00       	mov    $0x0,%eax
    3f72:	38 54 05 00          	cmp    %dl,0x0(%rbp,%rax,1)
    3f76:	75 1a                	jne    3f92 <strings_not_equal+0x56>
    3f78:	48 83 c0 01          	add    $0x1,%rax
    3f7c:	0f b6 14 03          	movzbl (%rbx,%rax,1),%edx
    3f80:	84 d2                	test   %dl,%dl
    3f82:	75 ee                	jne    3f72 <strings_not_equal+0x36>
    3f84:	b8 00 00 00 00       	mov    $0x0,%eax
    3f89:	eb 0c                	jmp    3f97 <strings_not_equal+0x5b>
    3f8b:	b8 00 00 00 00       	mov    $0x0,%eax
    3f90:	eb 05                	jmp    3f97 <strings_not_equal+0x5b>
    3f92:	b8 01 00 00 00       	mov    $0x1,%eax
    3f97:	5b                   	pop    %rbx
    3f98:	5d                   	pop    %rbp
    3f99:	41 5c                	pop    %r12
    3f9b:	c3                   	retq   

0000000000003f9c <initialize_bomb>:
    3f9c:	f3 0f 1e fa          	endbr64 
    3fa0:	55                   	push   %rbp
    3fa1:	53                   	push   %rbx
    3fa2:	48 81 ec 00 10 00 00 	sub    $0x1000,%rsp
    3fa9:	48 83 0c 24 00       	orq    $0x0,(%rsp)
    3fae:	48 81 ec 00 10 00 00 	sub    $0x1000,%rsp
    3fb5:	48 83 0c 24 00       	orq    $0x0,(%rsp)
    3fba:	48 83 ec 58          	sub    $0x58,%rsp
    3fbe:	64 48 8b 04 25 28 00 	mov    %fs:0x28,%rax
    3fc5:	00 00 
    3fc7:	48 89 84 24 48 20 00 	mov    %rax,0x2048(%rsp)
    3fce:	00 
    3fcf:	31 c0                	xor    %eax,%eax
    3fd1:	48 8d 35 9e fe ff ff 	lea    -0x162(%rip),%rsi        # 3e76 <sig_handler>
    3fd8:	bf 02 00 00 00       	mov    $0x2,%edi
    3fdd:	e8 2e f3 ff ff       	callq  3310 <signal@plt>
    3fe2:	48 89 e7             	mov    %rsp,%rdi
    3fe5:	be 40 00 00 00       	mov    $0x40,%esi
    3fea:	e8 b1 f3 ff ff       	callq  33a0 <gethostname@plt>
    3fef:	85 c0                	test   %eax,%eax
    3ff1:	0f 85 9b 00 00 00    	jne    4092 <initialize_bomb+0xf6>
    3ff7:	48 8b 3d 22 62 00 00 	mov    0x6222(%rip),%rdi        # a220 <host_table>
    3ffe:	48 8d 1d 23 62 00 00 	lea    0x6223(%rip),%rbx        # a228 <host_table+0x8>
    4005:	48 89 e5             	mov    %rsp,%rbp
    4008:	48 85 ff             	test   %rdi,%rdi
    400b:	74 1d                	je     402a <initialize_bomb+0x8e>
    400d:	48 89 ee             	mov    %rbp,%rsi
    4010:	e8 4b f2 ff ff       	callq  3260 <strcasecmp@plt>
    4015:	85 c0                	test   %eax,%eax
    4017:	0f 84 b0 00 00 00    	je     40cd <initialize_bomb+0x131>
    401d:	48 83 c3 08          	add    $0x8,%rbx
    4021:	48 8b 7b f8          	mov    -0x8(%rbx),%rdi
    4025:	48 85 ff             	test   %rdi,%rdi
    4028:	75 e3                	jne    400d <initialize_bomb+0x71>
    402a:	48 89 e2             	mov    %rsp,%rdx
    402d:	48 8d 35 dc 22 00 00 	lea    0x22dc(%rip),%rsi        # 6310 <array.3483+0xd0>
    4034:	bf 01 00 00 00       	mov    $0x1,%edi
    4039:	b8 00 00 00 00       	mov    $0x0,%eax
    403e:	e8 3d f3 ff ff       	callq  3380 <__printf_chk@plt>
    4043:	48 8d 3d a5 24 00 00 	lea    0x24a5(%rip),%rdi        # 64ef <array.3483+0x2af>
    404a:	e8 41 f2 ff ff       	callq  3290 <puts@plt>
    404f:	48 8b 15 ca 61 00 00 	mov    0x61ca(%rip),%rdx        # a220 <host_table>
    4056:	48 8d 1d cb 61 00 00 	lea    0x61cb(%rip),%rbx        # a228 <host_table+0x8>
    405d:	48 8d 2d 6b 24 00 00 	lea    0x246b(%rip),%rbp        # 64cf <array.3483+0x28f>
    4064:	48 85 d2             	test   %rdx,%rdx
    4067:	74 1f                	je     4088 <initialize_bomb+0xec>
    4069:	48 89 ee             	mov    %rbp,%rsi
    406c:	bf 01 00 00 00       	mov    $0x1,%edi
    4071:	b8 00 00 00 00       	mov    $0x0,%eax
    4076:	e8 05 f3 ff ff       	callq  3380 <__printf_chk@plt>
    407b:	48 83 c3 08          	add    $0x8,%rbx
    407f:	48 8b 53 f8          	mov    -0x8(%rbx),%rdx
    4083:	48 85 d2             	test   %rdx,%rdx
    4086:	75 e1                	jne    4069 <initialize_bomb+0xcd>
    4088:	bf 08 00 00 00       	mov    $0x8,%edi
    408d:	e8 1e f3 ff ff       	callq  33b0 <exit@plt>
    4092:	48 8d 3d 3f 22 00 00 	lea    0x223f(%rip),%rdi        # 62d8 <array.3483+0x98>
    4099:	e8 f2 f1 ff ff       	callq  3290 <puts@plt>
    409e:	bf 08 00 00 00       	mov    $0x8,%edi
    40a3:	e8 08 f3 ff ff       	callq  33b0 <exit@plt>
    40a8:	48 8d 54 24 40       	lea    0x40(%rsp),%rdx
    40ad:	48 8d 35 21 24 00 00 	lea    0x2421(%rip),%rsi        # 64d5 <array.3483+0x295>
    40b4:	bf 01 00 00 00       	mov    $0x1,%edi
    40b9:	b8 00 00 00 00       	mov    $0x0,%eax
    40be:	e8 bd f2 ff ff       	callq  3380 <__printf_chk@plt>
    40c3:	bf 08 00 00 00       	mov    $0x8,%edi
    40c8:	e8 e3 f2 ff ff       	callq  33b0 <exit@plt>
    40cd:	48 8d 7c 24 40       	lea    0x40(%rsp),%rdi
    40d2:	e8 05 0f 00 00       	callq  4fdc <init_driver>
    40d7:	85 c0                	test   %eax,%eax
    40d9:	78 cd                	js     40a8 <initialize_bomb+0x10c>
    40db:	48 8b 84 24 48 20 00 	mov    0x2048(%rsp),%rax
    40e2:	00 
    40e3:	64 48 33 04 25 28 00 	xor    %fs:0x28,%rax
    40ea:	00 00 
    40ec:	75 0a                	jne    40f8 <initialize_bomb+0x15c>
    40ee:	48 81 c4 58 20 00 00 	add    $0x2058,%rsp
    40f5:	5b                   	pop    %rbx
    40f6:	5d                   	pop    %rbp
    40f7:	c3                   	retq   
    40f8:	e8 b3 f1 ff ff       	callq  32b0 <__stack_chk_fail@plt>

00000000000040fd <initialize_bomb_solve>:
    40fd:	f3 0f 1e fa          	endbr64 
    4101:	c3                   	retq   

0000000000004102 <blank_line>:
    4102:	f3 0f 1e fa          	endbr64 
    4106:	55                   	push   %rbp
    4107:	53                   	push   %rbx
    4108:	48 83 ec 08          	sub    $0x8,%rsp
    410c:	48 89 fd             	mov    %rdi,%rbp
    410f:	0f b6 5d 00          	movzbl 0x0(%rbp),%ebx
    4113:	84 db                	test   %bl,%bl
    4115:	74 1e                	je     4135 <blank_line+0x33>
    4117:	e8 d4 f2 ff ff       	callq  33f0 <__ctype_b_loc@plt>
    411c:	48 83 c5 01          	add    $0x1,%rbp
    4120:	48 0f be db          	movsbq %bl,%rbx
    4124:	48 8b 00             	mov    (%rax),%rax
    4127:	f6 44 58 01 20       	testb  $0x20,0x1(%rax,%rbx,2)
    412c:	75 e1                	jne    410f <blank_line+0xd>
    412e:	b8 00 00 00 00       	mov    $0x0,%eax
    4133:	eb 05                	jmp    413a <blank_line+0x38>
    4135:	b8 01 00 00 00       	mov    $0x1,%eax
    413a:	48 83 c4 08          	add    $0x8,%rsp
    413e:	5b                   	pop    %rbx
    413f:	5d                   	pop    %rbp
    4140:	c3                   	retq   

0000000000004141 <skip>:
    4141:	f3 0f 1e fa          	endbr64 
    4145:	55                   	push   %rbp
    4146:	53                   	push   %rbx
    4147:	48 83 ec 08          	sub    $0x8,%rsp
    414b:	48 8d 2d 0e 71 00 00 	lea    0x710e(%rip),%rbp        # b260 <input_strings>
    4152:	48 63 05 f3 70 00 00 	movslq 0x70f3(%rip),%rax        # b24c <num_input_strings>
    4159:	48 8d 3c 80          	lea    (%rax,%rax,4),%rdi
    415d:	48 c1 e7 04          	shl    $0x4,%rdi
    4161:	48 01 ef             	add    %rbp,%rdi
    4164:	48 8b 15 e5 70 00 00 	mov    0x70e5(%rip),%rdx        # b250 <infile>
    416b:	be 50 00 00 00       	mov    $0x50,%esi
    4170:	e8 7b f1 ff ff       	callq  32f0 <fgets@plt>
    4175:	48 89 c3             	mov    %rax,%rbx
    4178:	48 85 c0             	test   %rax,%rax
    417b:	74 0c                	je     4189 <skip+0x48>
    417d:	48 89 c7             	mov    %rax,%rdi
    4180:	e8 7d ff ff ff       	callq  4102 <blank_line>
    4185:	85 c0                	test   %eax,%eax
    4187:	75 c9                	jne    4152 <skip+0x11>
    4189:	48 89 d8             	mov    %rbx,%rax
    418c:	48 83 c4 08          	add    $0x8,%rsp
    4190:	5b                   	pop    %rbx
    4191:	5d                   	pop    %rbp
    4192:	c3                   	retq   

0000000000004193 <send_msg>:
    4193:	f3 0f 1e fa          	endbr64 
    4197:	53                   	push   %rbx
    4198:	4c 8d 9c 24 00 c0 ff 	lea    -0x4000(%rsp),%r11
    419f:	ff 
    41a0:	48 81 ec 00 10 00 00 	sub    $0x1000,%rsp
    41a7:	48 83 0c 24 00       	orq    $0x0,(%rsp)
    41ac:	4c 39 dc             	cmp    %r11,%rsp
    41af:	75 ef                	jne    41a0 <send_msg+0xd>
    41b1:	48 83 ec 10          	sub    $0x10,%rsp
    41b5:	64 48 8b 04 25 28 00 	mov    %fs:0x28,%rax
    41bc:	00 00 
    41be:	48 89 84 24 08 40 00 	mov    %rax,0x4008(%rsp)
    41c5:	00 
    41c6:	31 c0                	xor    %eax,%eax
    41c8:	8b 15 7e 70 00 00    	mov    0x707e(%rip),%edx        # b24c <num_input_strings>
    41ce:	8d 42 ff             	lea    -0x1(%rdx),%eax
    41d1:	48 98                	cltq   
    41d3:	48 8d 04 80          	lea    (%rax,%rax,4),%rax
    41d7:	48 c1 e0 04          	shl    $0x4,%rax
    41db:	48 8d 0d 7e 70 00 00 	lea    0x707e(%rip),%rcx        # b260 <input_strings>
    41e2:	48 01 c8             	add    %rcx,%rax
    41e5:	85 ff                	test   %edi,%edi
    41e7:	4c 8d 0d 1d 23 00 00 	lea    0x231d(%rip),%r9        # 650b <array.3483+0x2cb>
    41ee:	48 8d 0d 1e 23 00 00 	lea    0x231e(%rip),%rcx        # 6513 <array.3483+0x2d3>
    41f5:	4c 0f 44 c9          	cmove  %rcx,%r9
    41f9:	48 89 e3             	mov    %rsp,%rbx
    41fc:	50                   	push   %rax
    41fd:	52                   	push   %rdx
    41fe:	44 8b 05 2f 5f 00 00 	mov    0x5f2f(%rip),%r8d        # a134 <bomb_id>
    4205:	48 8d 0d 10 23 00 00 	lea    0x2310(%rip),%rcx        # 651c <array.3483+0x2dc>
    420c:	ba 00 20 00 00       	mov    $0x2000,%edx
    4211:	be 01 00 00 00       	mov    $0x1,%esi
    4216:	48 89 df             	mov    %rbx,%rdi
    4219:	b8 00 00 00 00       	mov    $0x0,%eax
    421e:	e8 dd f1 ff ff       	callq  3400 <__sprintf_chk@plt>
    4223:	4c 8d 84 24 10 20 00 	lea    0x2010(%rsp),%r8
    422a:	00 
    422b:	b9 00 00 00 00       	mov    $0x0,%ecx
    4230:	48 89 da             	mov    %rbx,%rdx
    4233:	48 8d 35 d6 5e 00 00 	lea    0x5ed6(%rip),%rsi        # a110 <user_password>
    423a:	48 8d 3d e7 5e 00 00 	lea    0x5ee7(%rip),%rdi        # a128 <userid>
    4241:	e8 8b 0f 00 00       	callq  51d1 <driver_post>
    4246:	48 83 c4 10          	add    $0x10,%rsp
    424a:	85 c0                	test   %eax,%eax
    424c:	78 1c                	js     426a <send_msg+0xd7>
    424e:	48 8b 84 24 08 40 00 	mov    0x4008(%rsp),%rax
    4255:	00 
    4256:	64 48 33 04 25 28 00 	xor    %fs:0x28,%rax
    425d:	00 00 
    425f:	75 20                	jne    4281 <send_msg+0xee>
    4261:	48 81 c4 10 40 00 00 	add    $0x4010,%rsp
    4268:	5b                   	pop    %rbx
    4269:	c3                   	retq   
    426a:	48 8d bc 24 00 20 00 	lea    0x2000(%rsp),%rdi
    4271:	00 
    4272:	e8 19 f0 ff ff       	callq  3290 <puts@plt>
    4277:	bf 00 00 00 00       	mov    $0x0,%edi
    427c:	e8 2f f1 ff ff       	callq  33b0 <exit@plt>
    4281:	e8 2a f0 ff ff       	callq  32b0 <__stack_chk_fail@plt>

0000000000004286 <explode_bomb>:
    4286:	f3 0f 1e fa          	endbr64 
    428a:	50                   	push   %rax
    428b:	58                   	pop    %rax
    428c:	48 83 ec 08          	sub    $0x8,%rsp
    4290:	48 8d 3d 91 22 00 00 	lea    0x2291(%rip),%rdi        # 6528 <array.3483+0x2e8>
    4297:	e8 f4 ef ff ff       	callq  3290 <puts@plt>
    429c:	48 8d 3d 8e 22 00 00 	lea    0x228e(%rip),%rdi        # 6531 <array.3483+0x2f1>
    42a3:	e8 e8 ef ff ff       	callq  3290 <puts@plt>
    42a8:	bf 00 00 00 00       	mov    $0x0,%edi
    42ad:	e8 e1 fe ff ff       	callq  4193 <send_msg>
    42b2:	48 8d 3d 87 20 00 00 	lea    0x2087(%rip),%rdi        # 6340 <array.3483+0x100>
    42b9:	e8 d2 ef ff ff       	callq  3290 <puts@plt>
    42be:	bf 08 00 00 00       	mov    $0x8,%edi
    42c3:	e8 e8 f0 ff ff       	callq  33b0 <exit@plt>

00000000000042c8 <read_six_numbers>:
    42c8:	f3 0f 1e fa          	endbr64 
    42cc:	48 83 ec 08          	sub    $0x8,%rsp
    42d0:	48 89 f2             	mov    %rsi,%rdx
    42d3:	48 8d 4e 04          	lea    0x4(%rsi),%rcx
    42d7:	48 8d 46 14          	lea    0x14(%rsi),%rax
    42db:	50                   	push   %rax
    42dc:	48 8d 46 10          	lea    0x10(%rsi),%rax
    42e0:	50                   	push   %rax
    42e1:	4c 8d 4e 0c          	lea    0xc(%rsi),%r9
    42e5:	4c 8d 46 08          	lea    0x8(%rsi),%r8
    42e9:	48 8d 35 58 22 00 00 	lea    0x2258(%rip),%rsi        # 6548 <array.3483+0x308>
    42f0:	b8 00 00 00 00       	mov    $0x0,%eax
    42f5:	e8 66 f0 ff ff       	callq  3360 <__isoc99_sscanf@plt>
    42fa:	48 83 c4 10          	add    $0x10,%rsp
    42fe:	83 f8 05             	cmp    $0x5,%eax
    4301:	7e 05                	jle    4308 <read_six_numbers+0x40>
    4303:	48 83 c4 08          	add    $0x8,%rsp
    4307:	c3                   	retq   
    4308:	e8 79 ff ff ff       	callq  4286 <explode_bomb>

000000000000430d <read_line>:
    430d:	f3 0f 1e fa          	endbr64 
    4311:	48 83 ec 08          	sub    $0x8,%rsp
    4315:	b8 00 00 00 00       	mov    $0x0,%eax
    431a:	e8 22 fe ff ff       	callq  4141 <skip>
    431f:	48 85 c0             	test   %rax,%rax
    4322:	74 76                	je     439a <read_line+0x8d>
    4324:	8b 35 22 6f 00 00    	mov    0x6f22(%rip),%esi        # b24c <num_input_strings>
    432a:	48 63 c6             	movslq %esi,%rax
    432d:	48 8d 14 80          	lea    (%rax,%rax,4),%rdx
    4331:	48 c1 e2 04          	shl    $0x4,%rdx
    4335:	48 8d 05 24 6f 00 00 	lea    0x6f24(%rip),%rax        # b260 <input_strings>
    433c:	48 01 c2             	add    %rax,%rdx
    433f:	48 c7 c1 ff ff ff ff 	mov    $0xffffffffffffffff,%rcx
    4346:	b8 00 00 00 00       	mov    $0x0,%eax
    434b:	48 89 d7             	mov    %rdx,%rdi
    434e:	f2 ae                	repnz scas %es:(%rdi),%al
    4350:	48 f7 d1             	not    %rcx
    4353:	48 83 e9 01          	sub    $0x1,%rcx
    4357:	83 f9 4e             	cmp    $0x4e,%ecx
    435a:	0f 8f b2 00 00 00    	jg     4412 <read_line+0x105>
    4360:	83 e9 01             	sub    $0x1,%ecx
    4363:	4c 63 c1             	movslq %ecx,%r8
    4366:	48 63 c6             	movslq %esi,%rax
    4369:	48 8d 04 80          	lea    (%rax,%rax,4),%rax
    436d:	48 c1 e0 04          	shl    $0x4,%rax
    4371:	48 89 c7             	mov    %rax,%rdi
    4374:	48 8d 05 e5 6e 00 00 	lea    0x6ee5(%rip),%rax        # b260 <input_strings>
    437b:	48 01 f8             	add    %rdi,%rax
    437e:	42 80 3c 00 0a       	cmpb   $0xa,(%rax,%r8,1)
    4383:	0f 84 d3 00 00 00    	je     445c <read_line+0x14f>
    4389:	83 c6 01             	add    $0x1,%esi
    438c:	89 35 ba 6e 00 00    	mov    %esi,0x6eba(%rip)        # b24c <num_input_strings>
    4392:	48 89 d0             	mov    %rdx,%rax
    4395:	48 83 c4 08          	add    $0x8,%rsp
    4399:	c3                   	retq   
    439a:	48 8b 05 7f 6e 00 00 	mov    0x6e7f(%rip),%rax        # b220 <stdin@@GLIBC_2.2.5>
    43a1:	48 39 05 a8 6e 00 00 	cmp    %rax,0x6ea8(%rip)        # b250 <infile>
    43a8:	74 1b                	je     43c5 <read_line+0xb8>
    43aa:	48 8d 3d c7 21 00 00 	lea    0x21c7(%rip),%rdi        # 6578 <array.3483+0x338>
    43b1:	e8 7a ee ff ff       	callq  3230 <getenv@plt>
    43b6:	48 85 c0             	test   %rax,%rax
    43b9:	74 20                	je     43db <read_line+0xce>
    43bb:	bf 00 00 00 00       	mov    $0x0,%edi
    43c0:	e8 eb ef ff ff       	callq  33b0 <exit@plt>
    43c5:	48 8d 3d 8e 21 00 00 	lea    0x218e(%rip),%rdi        # 655a <array.3483+0x31a>
    43cc:	e8 bf ee ff ff       	callq  3290 <puts@plt>
    43d1:	bf 08 00 00 00       	mov    $0x8,%edi
    43d6:	e8 d5 ef ff ff       	callq  33b0 <exit@plt>
    43db:	48 8b 05 3e 6e 00 00 	mov    0x6e3e(%rip),%rax        # b220 <stdin@@GLIBC_2.2.5>
    43e2:	48 89 05 67 6e 00 00 	mov    %rax,0x6e67(%rip)        # b250 <infile>
    43e9:	b8 00 00 00 00       	mov    $0x0,%eax
    43ee:	e8 4e fd ff ff       	callq  4141 <skip>
    43f3:	48 85 c0             	test   %rax,%rax
    43f6:	0f 85 28 ff ff ff    	jne    4324 <read_line+0x17>
    43fc:	48 8d 3d 57 21 00 00 	lea    0x2157(%rip),%rdi        # 655a <array.3483+0x31a>
    4403:	e8 88 ee ff ff       	callq  3290 <puts@plt>
    4408:	bf 00 00 00 00       	mov    $0x0,%edi
    440d:	e8 9e ef ff ff       	callq  33b0 <exit@plt>
    4412:	48 8d 3d 6a 21 00 00 	lea    0x216a(%rip),%rdi        # 6583 <array.3483+0x343>
    4419:	e8 72 ee ff ff       	callq  3290 <puts@plt>
    441e:	8b 05 28 6e 00 00    	mov    0x6e28(%rip),%eax        # b24c <num_input_strings>
    4424:	8d 50 01             	lea    0x1(%rax),%edx
    4427:	89 15 1f 6e 00 00    	mov    %edx,0x6e1f(%rip)        # b24c <num_input_strings>
    442d:	48 98                	cltq   
    442f:	48 6b c0 50          	imul   $0x50,%rax,%rax
    4433:	48 8d 15 26 6e 00 00 	lea    0x6e26(%rip),%rdx        # b260 <input_strings>
    443a:	48 be 2a 2a 2a 74 72 	movabs $0x636e7572742a2a2a,%rsi
    4441:	75 6e 63 
    4444:	48 bf 61 74 65 64 2a 	movabs $0x2a2a2a64657461,%rdi
    444b:	2a 2a 00 
    444e:	48 89 34 02          	mov    %rsi,(%rdx,%rax,1)
    4452:	48 89 7c 02 08       	mov    %rdi,0x8(%rdx,%rax,1)
    4457:	e8 2a fe ff ff       	callq  4286 <explode_bomb>
    445c:	48 8d 05 fd 6d 00 00 	lea    0x6dfd(%rip),%rax        # b260 <input_strings>
    4463:	48 01 f8             	add    %rdi,%rax
    4466:	42 c6 04 00 00       	movb   $0x0,(%rax,%r8,1)
    446b:	e9 19 ff ff ff       	jmpq   4389 <read_line+0x7c>

0000000000004470 <phase_defused>:
    4470:	f3 0f 1e fa          	endbr64 
    4474:	48 81 ec b8 00 00 00 	sub    $0xb8,%rsp
    447b:	64 48 8b 04 25 28 00 	mov    %fs:0x28,%rax
    4482:	00 00 
    4484:	48 89 84 24 a8 00 00 	mov    %rax,0xa8(%rsp)
    448b:	00 
    448c:	31 c0                	xor    %eax,%eax
    448e:	bf 01 00 00 00       	mov    $0x1,%edi
    4493:	e8 fb fc ff ff       	callq  4193 <send_msg>
    4498:	83 3d ad 6d 00 00 06 	cmpl   $0x6,0x6dad(%rip)        # b24c <num_input_strings>
    449f:	74 1f                	je     44c0 <phase_defused+0x50>
    44a1:	48 8b 84 24 a8 00 00 	mov    0xa8(%rsp),%rax
    44a8:	00 
    44a9:	64 48 33 04 25 28 00 	xor    %fs:0x28,%rax
    44b0:	00 00 
    44b2:	0f 85 58 01 00 00    	jne    4610 <phase_defused+0x1a0>
    44b8:	48 81 c4 b8 00 00 00 	add    $0xb8,%rsp
    44bf:	c3                   	retq   
    44c0:	48 8d 4c 24 30       	lea    0x30(%rsp),%rcx
    44c5:	48 8d 54 24 10       	lea    0x10(%rsp),%rdx
    44ca:	4c 8d 44 24 50       	lea    0x50(%rsp),%r8
    44cf:	48 8d 35 2a 1d 00 00 	lea    0x1d2a(%rip),%rsi        # 6200 <_IO_stdin_used+0x200>
    44d6:	48 8d 3d c3 6e 00 00 	lea    0x6ec3(%rip),%rdi        # b3a0 <input_strings+0x140>
    44dd:	b8 00 00 00 00       	mov    $0x0,%eax
    44e2:	e8 79 ee ff ff       	callq  3360 <__isoc99_sscanf@plt>
    44e7:	83 f8 03             	cmp    $0x3,%eax
    44ea:	0f 84 e0 00 00 00    	je     45d0 <phase_defused+0x160>
    44f0:	48 8d 3d d9 1e 00 00 	lea    0x1ed9(%rip),%rdi        # 63d0 <array.3483+0x190>
    44f7:	e8 94 ed ff ff       	callq  3290 <puts@plt>
    44fc:	48 8d 3d fd 1e 00 00 	lea    0x1efd(%rip),%rdi        # 6400 <array.3483+0x1c0>
    4503:	e8 88 ed ff ff       	callq  3290 <puts@plt>
    4508:	48 8d 4c 24 0c       	lea    0xc(%rsp),%rcx
    450d:	48 8d 54 24 08       	lea    0x8(%rsp),%rdx
    4512:	4c 8d 44 24 50       	lea    0x50(%rsp),%r8
    4517:	48 8d 35 87 20 00 00 	lea    0x2087(%rip),%rsi        # 65a5 <array.3483+0x365>
    451e:	48 8d 3d 2b 6e 00 00 	lea    0x6e2b(%rip),%rdi        # b350 <input_strings+0xf0>
    4525:	b8 00 00 00 00       	mov    $0x0,%eax
    452a:	e8 31 ee ff ff       	callq  3360 <__isoc99_sscanf@plt>
    452f:	83 f8 03             	cmp    $0x3,%eax
    4532:	0f 85 69 ff ff ff    	jne    44a1 <phase_defused+0x31>
    4538:	48 8d 7c 24 50       	lea    0x50(%rsp),%rdi
    453d:	48 8d 35 6a 20 00 00 	lea    0x206a(%rip),%rsi        # 65ae <array.3483+0x36e>
    4544:	e8 f3 f9 ff ff       	callq  3f3c <strings_not_equal>
    4549:	85 c0                	test   %eax,%eax
    454b:	0f 85 50 ff ff ff    	jne    44a1 <phase_defused+0x31>
    4551:	48 8d 3d 82 20 00 00 	lea    0x2082(%rip),%rdi        # 65da <array.3483+0x39a>
    4558:	e8 33 ed ff ff       	callq  3290 <puts@plt>
    455d:	bf 02 00 00 00       	mov    $0x2,%edi
    4562:	e8 79 ee ff ff       	callq  33e0 <sleep@plt>
    4567:	48 8d 3d 47 20 00 00 	lea    0x2047(%rip),%rdi        # 65b5 <array.3483+0x375>
    456e:	e8 1d ed ff ff       	callq  3290 <puts@plt>
    4573:	bf 03 00 00 00       	mov    $0x3,%edi
    4578:	e8 63 ee ff ff       	callq  33e0 <sleep@plt>
    457d:	48 8d 3d 44 20 00 00 	lea    0x2044(%rip),%rdi        # 65c8 <array.3483+0x388>
    4584:	e8 07 ed ff ff       	callq  3290 <puts@plt>
    4589:	bf 04 00 00 00       	mov    $0x4,%edi
    458e:	e8 4d ee ff ff       	callq  33e0 <sleep@plt>
    4593:	48 8d 3d 44 20 00 00 	lea    0x2044(%rip),%rdi        # 65de <array.3483+0x39e>
    459a:	e8 f1 ec ff ff       	callq  3290 <puts@plt>
    459f:	bf 05 00 00 00       	mov    $0x5,%edi
    45a4:	e8 37 ee ff ff       	callq  33e0 <sleep@plt>
    45a9:	48 8d 3d 98 1e 00 00 	lea    0x1e98(%rip),%rdi        # 6448 <array.3483+0x208>
    45b0:	e8 db ec ff ff       	callq  3290 <puts@plt>
    45b5:	bf 05 00 00 00       	mov    $0x5,%edi
    45ba:	e8 21 ee ff ff       	callq  33e0 <sleep@plt>
    45bf:	48 8d 3d ba 1e 00 00 	lea    0x1eba(%rip),%rdi        # 6480 <array.3483+0x240>
    45c6:	e8 c5 ec ff ff       	callq  3290 <puts@plt>
    45cb:	e9 d1 fe ff ff       	jmpq   44a1 <phase_defused+0x31>
    45d0:	48 8d 7c 24 50       	lea    0x50(%rsp),%rdi
    45d5:	48 8d 35 c2 1f 00 00 	lea    0x1fc2(%rip),%rsi        # 659e <array.3483+0x35e>
    45dc:	e8 5b f9 ff ff       	callq  3f3c <strings_not_equal>
    45e1:	85 c0                	test   %eax,%eax
    45e3:	0f 85 07 ff ff ff    	jne    44f0 <phase_defused+0x80>
    45e9:	48 8d 3d 78 1d 00 00 	lea    0x1d78(%rip),%rdi        # 6368 <array.3483+0x128>
    45f0:	e8 9b ec ff ff       	callq  3290 <puts@plt>
    45f5:	48 8d 3d 9c 1d 00 00 	lea    0x1d9c(%rip),%rdi        # 6398 <array.3483+0x158>
    45fc:	e8 8f ec ff ff       	callq  3290 <puts@plt>
    4601:	b8 00 00 00 00       	mov    $0x0,%eax
    4606:	e8 0e f8 ff ff       	callq  3e19 <secret_phase>
    460b:	e9 e0 fe ff ff       	jmpq   44f0 <phase_defused+0x80>
    4610:	e8 9b ec ff ff       	callq  32b0 <__stack_chk_fail@plt>

0000000000004615 <sigalrm_handler>:
    4615:	f3 0f 1e fa          	endbr64 
    4619:	50                   	push   %rax
    461a:	58                   	pop    %rax
    461b:	48 83 ec 08          	sub    $0x8,%rsp
    461f:	b9 00 00 00 00       	mov    $0x0,%ecx
    4624:	48 8d 15 7d 32 00 00 	lea    0x327d(%rip),%rdx        # 78a8 <array.3483+0x1668>
    462b:	be 01 00 00 00       	mov    $0x1,%esi
    4630:	48 8b 3d 09 6c 00 00 	mov    0x6c09(%rip),%rdi        # b240 <stderr@@GLIBC_2.2.5>
    4637:	b8 00 00 00 00       	mov    $0x0,%eax
    463c:	e8 8f ed ff ff       	callq  33d0 <__fprintf_chk@plt>
    4641:	bf 01 00 00 00       	mov    $0x1,%edi
    4646:	e8 65 ed ff ff       	callq  33b0 <exit@plt>

000000000000464b <rio_readlineb>:
    464b:	41 56                	push   %r14
    464d:	41 55                	push   %r13
    464f:	41 54                	push   %r12
    4651:	55                   	push   %rbp
    4652:	53                   	push   %rbx
    4653:	48 89 f5             	mov    %rsi,%rbp
    4656:	48 83 fa 01          	cmp    $0x1,%rdx
    465a:	0f 86 90 00 00 00    	jbe    46f0 <rio_readlineb+0xa5>
    4660:	48 89 fb             	mov    %rdi,%rbx
    4663:	4c 8d 74 16 ff       	lea    -0x1(%rsi,%rdx,1),%r14
    4668:	41 bd 01 00 00 00    	mov    $0x1,%r13d
    466e:	4c 8d 67 10          	lea    0x10(%rdi),%r12
    4672:	eb 54                	jmp    46c8 <rio_readlineb+0x7d>
    4674:	e8 f7 eb ff ff       	callq  3270 <__errno_location@plt>
    4679:	83 38 04             	cmpl   $0x4,(%rax)
    467c:	75 53                	jne    46d1 <rio_readlineb+0x86>
    467e:	ba 00 20 00 00       	mov    $0x2000,%edx
    4683:	4c 89 e6             	mov    %r12,%rsi
    4686:	8b 3b                	mov    (%rbx),%edi
    4688:	e8 53 ec ff ff       	callq  32e0 <read@plt>
    468d:	89 c2                	mov    %eax,%edx
    468f:	89 43 04             	mov    %eax,0x4(%rbx)
    4692:	85 c0                	test   %eax,%eax
    4694:	78 de                	js     4674 <rio_readlineb+0x29>
    4696:	85 c0                	test   %eax,%eax
    4698:	74 40                	je     46da <rio_readlineb+0x8f>
    469a:	4c 89 63 08          	mov    %r12,0x8(%rbx)
    469e:	48 8b 43 08          	mov    0x8(%rbx),%rax
    46a2:	0f b6 08             	movzbl (%rax),%ecx
    46a5:	48 83 c0 01          	add    $0x1,%rax
    46a9:	48 89 43 08          	mov    %rax,0x8(%rbx)
    46ad:	83 ea 01             	sub    $0x1,%edx
    46b0:	89 53 04             	mov    %edx,0x4(%rbx)
    46b3:	48 83 c5 01          	add    $0x1,%rbp
    46b7:	88 4d ff             	mov    %cl,-0x1(%rbp)
    46ba:	80 f9 0a             	cmp    $0xa,%cl
    46bd:	74 3c                	je     46fb <rio_readlineb+0xb0>
    46bf:	41 83 c5 01          	add    $0x1,%r13d
    46c3:	4c 39 f5             	cmp    %r14,%rbp
    46c6:	74 30                	je     46f8 <rio_readlineb+0xad>
    46c8:	8b 53 04             	mov    0x4(%rbx),%edx
    46cb:	85 d2                	test   %edx,%edx
    46cd:	7e af                	jle    467e <rio_readlineb+0x33>
    46cf:	eb cd                	jmp    469e <rio_readlineb+0x53>
    46d1:	48 c7 c0 ff ff ff ff 	mov    $0xffffffffffffffff,%rax
    46d8:	eb 05                	jmp    46df <rio_readlineb+0x94>
    46da:	b8 00 00 00 00       	mov    $0x0,%eax
    46df:	85 c0                	test   %eax,%eax
    46e1:	75 28                	jne    470b <rio_readlineb+0xc0>
    46e3:	b8 00 00 00 00       	mov    $0x0,%eax
    46e8:	41 83 fd 01          	cmp    $0x1,%r13d
    46ec:	75 0d                	jne    46fb <rio_readlineb+0xb0>
    46ee:	eb 12                	jmp    4702 <rio_readlineb+0xb7>
    46f0:	41 bd 01 00 00 00    	mov    $0x1,%r13d
    46f6:	eb 03                	jmp    46fb <rio_readlineb+0xb0>
    46f8:	4c 89 f5             	mov    %r14,%rbp
    46fb:	c6 45 00 00          	movb   $0x0,0x0(%rbp)
    46ff:	49 63 c5             	movslq %r13d,%rax
    4702:	5b                   	pop    %rbx
    4703:	5d                   	pop    %rbp
    4704:	41 5c                	pop    %r12
    4706:	41 5d                	pop    %r13
    4708:	41 5e                	pop    %r14
    470a:	c3                   	retq   
    470b:	48 c7 c0 ff ff ff ff 	mov    $0xffffffffffffffff,%rax
    4712:	eb ee                	jmp    4702 <rio_readlineb+0xb7>

0000000000004714 <submitr>:
    4714:	f3 0f 1e fa          	endbr64 
    4718:	41 57                	push   %r15
    471a:	41 56                	push   %r14
    471c:	41 55                	push   %r13
    471e:	41 54                	push   %r12
    4720:	55                   	push   %rbp
    4721:	53                   	push   %rbx
    4722:	4c 8d 9c 24 00 60 ff 	lea    -0xa000(%rsp),%r11
    4729:	ff 
    472a:	48 81 ec 00 10 00 00 	sub    $0x1000,%rsp
    4731:	48 83 0c 24 00       	orq    $0x0,(%rsp)
    4736:	4c 39 dc             	cmp    %r11,%rsp
    4739:	75 ef                	jne    472a <submitr+0x16>
    473b:	48 83 ec 68          	sub    $0x68,%rsp
    473f:	49 89 fd             	mov    %rdi,%r13
    4742:	89 f5                	mov    %esi,%ebp
    4744:	48 89 14 24          	mov    %rdx,(%rsp)
    4748:	48 89 4c 24 08       	mov    %rcx,0x8(%rsp)
    474d:	4c 89 44 24 18       	mov    %r8,0x18(%rsp)
    4752:	4c 89 4c 24 10       	mov    %r9,0x10(%rsp)
    4757:	48 8b 9c 24 a0 a0 00 	mov    0xa0a0(%rsp),%rbx
    475e:	00 
    475f:	4c 8b bc 24 a8 a0 00 	mov    0xa0a8(%rsp),%r15
    4766:	00 
    4767:	64 48 8b 04 25 28 00 	mov    %fs:0x28,%rax
    476e:	00 00 
    4770:	48 89 84 24 58 a0 00 	mov    %rax,0xa058(%rsp)
    4777:	00 
    4778:	31 c0                	xor    %eax,%eax
    477a:	c7 44 24 2c 00 00 00 	movl   $0x0,0x2c(%rsp)
    4781:	00 
    4782:	ba 00 00 00 00       	mov    $0x0,%edx
    4787:	be 01 00 00 00       	mov    $0x1,%esi
    478c:	bf 02 00 00 00       	mov    $0x2,%edi
    4791:	e8 7a ec ff ff       	callq  3410 <socket@plt>
    4796:	85 c0                	test   %eax,%eax
    4798:	0f 88 17 01 00 00    	js     48b5 <submitr+0x1a1>
    479e:	41 89 c4             	mov    %eax,%r12d
    47a1:	4c 89 ef             	mov    %r13,%rdi
    47a4:	e8 77 eb ff ff       	callq  3320 <gethostbyname@plt>
    47a9:	48 85 c0             	test   %rax,%rax
    47ac:	0f 84 53 01 00 00    	je     4905 <submitr+0x1f1>
    47b2:	4c 8d 6c 24 30       	lea    0x30(%rsp),%r13
    47b7:	48 c7 44 24 30 00 00 	movq   $0x0,0x30(%rsp)
    47be:	00 00 
    47c0:	48 c7 44 24 38 00 00 	movq   $0x0,0x38(%rsp)
    47c7:	00 00 
    47c9:	66 c7 44 24 30 02 00 	movw   $0x2,0x30(%rsp)
    47d0:	48 63 50 14          	movslq 0x14(%rax),%rdx
    47d4:	48 8b 40 18          	mov    0x18(%rax),%rax
    47d8:	48 8d 7c 24 34       	lea    0x34(%rsp),%rdi
    47dd:	b9 0c 00 00 00       	mov    $0xc,%ecx
    47e2:	48 8b 30             	mov    (%rax),%rsi
    47e5:	e8 46 eb ff ff       	callq  3330 <__memmove_chk@plt>
    47ea:	66 c1 c5 08          	rol    $0x8,%bp
    47ee:	66 89 6c 24 32       	mov    %bp,0x32(%rsp)
    47f3:	ba 10 00 00 00       	mov    $0x10,%edx
    47f8:	4c 89 ee             	mov    %r13,%rsi
    47fb:	44 89 e7             	mov    %r12d,%edi
    47fe:	e8 bd eb ff ff       	callq  33c0 <connect@plt>
    4803:	85 c0                	test   %eax,%eax
    4805:	0f 88 65 01 00 00    	js     4970 <submitr+0x25c>
    480b:	49 c7 c1 ff ff ff ff 	mov    $0xffffffffffffffff,%r9
    4812:	b8 00 00 00 00       	mov    $0x0,%eax
    4817:	4c 89 c9             	mov    %r9,%rcx
    481a:	48 89 df             	mov    %rbx,%rdi
    481d:	f2 ae                	repnz scas %es:(%rdi),%al
    481f:	48 f7 d1             	not    %rcx
    4822:	48 89 ce             	mov    %rcx,%rsi
    4825:	4c 89 c9             	mov    %r9,%rcx
    4828:	48 8b 3c 24          	mov    (%rsp),%rdi
    482c:	f2 ae                	repnz scas %es:(%rdi),%al
    482e:	49 89 c8             	mov    %rcx,%r8
    4831:	4c 89 c9             	mov    %r9,%rcx
    4834:	48 8b 7c 24 08       	mov    0x8(%rsp),%rdi
    4839:	f2 ae                	repnz scas %es:(%rdi),%al
    483b:	48 89 ca             	mov    %rcx,%rdx
    483e:	48 f7 d2             	not    %rdx
    4841:	4c 89 c9             	mov    %r9,%rcx
    4844:	48 8b 7c 24 10       	mov    0x10(%rsp),%rdi
    4849:	f2 ae                	repnz scas %es:(%rdi),%al
    484b:	4c 29 c2             	sub    %r8,%rdx
    484e:	48 29 ca             	sub    %rcx,%rdx
    4851:	48 8d 44 76 fd       	lea    -0x3(%rsi,%rsi,2),%rax
    4856:	48 8d 44 02 7b       	lea    0x7b(%rdx,%rax,1),%rax
    485b:	48 3d 00 20 00 00    	cmp    $0x2000,%rax
    4861:	0f 87 66 01 00 00    	ja     49cd <submitr+0x2b9>
    4867:	48 8d 94 24 50 40 00 	lea    0x4050(%rsp),%rdx
    486e:	00 
    486f:	b9 00 04 00 00       	mov    $0x400,%ecx
    4874:	b8 00 00 00 00       	mov    $0x0,%eax
    4879:	48 89 d7             	mov    %rdx,%rdi
    487c:	f3 48 ab             	rep stos %rax,%es:(%rdi)
    487f:	48 c7 c1 ff ff ff ff 	mov    $0xffffffffffffffff,%rcx
    4886:	48 89 df             	mov    %rbx,%rdi
    4889:	f2 ae                	repnz scas %es:(%rdi),%al
    488b:	48 f7 d1             	not    %rcx
    488e:	48 8d 41 ff          	lea    -0x1(%rcx),%rax
    4892:	83 f9 01             	cmp    $0x1,%ecx
    4895:	0f 84 84 06 00 00    	je     4f1f <submitr+0x80b>
    489b:	8d 40 ff             	lea    -0x1(%rax),%eax
    489e:	4c 8d 74 03 01       	lea    0x1(%rbx,%rax,1),%r14
    48a3:	48 89 d5             	mov    %rdx,%rbp
    48a6:	49 bd d9 ff 00 00 00 	movabs $0x2000000000ffd9,%r13
    48ad:	00 20 00 
    48b0:	e9 a6 01 00 00       	jmpq   4a5b <submitr+0x347>
    48b5:	48 b8 45 72 72 6f 72 	movabs $0x43203a726f727245,%rax
    48bc:	3a 20 43 
    48bf:	48 ba 6c 69 65 6e 74 	movabs $0x6e7520746e65696c,%rdx
    48c6:	20 75 6e 
    48c9:	49 89 07             	mov    %rax,(%r15)
    48cc:	49 89 57 08          	mov    %rdx,0x8(%r15)
    48d0:	48 b8 61 62 6c 65 20 	movabs $0x206f7420656c6261,%rax
    48d7:	74 6f 20 
    48da:	48 ba 63 72 65 61 74 	movabs $0x7320657461657263,%rdx
    48e1:	65 20 73 
    48e4:	49 89 47 10          	mov    %rax,0x10(%r15)
    48e8:	49 89 57 18          	mov    %rdx,0x18(%r15)
    48ec:	41 c7 47 20 6f 63 6b 	movl   $0x656b636f,0x20(%r15)
    48f3:	65 
    48f4:	66 41 c7 47 24 74 00 	movw   $0x74,0x24(%r15)
    48fb:	b8 ff ff ff ff       	mov    $0xffffffff,%eax
    4900:	e9 92 04 00 00       	jmpq   4d97 <submitr+0x683>
    4905:	48 b8 45 72 72 6f 72 	movabs $0x44203a726f727245,%rax
    490c:	3a 20 44 
    490f:	48 ba 4e 53 20 69 73 	movabs $0x6e7520736920534e,%rdx
    4916:	20 75 6e 
    4919:	49 89 07             	mov    %rax,(%r15)
    491c:	49 89 57 08          	mov    %rdx,0x8(%r15)
    4920:	48 b8 61 62 6c 65 20 	movabs $0x206f7420656c6261,%rax
    4927:	74 6f 20 
    492a:	48 ba 72 65 73 6f 6c 	movabs $0x2065766c6f736572,%rdx
    4931:	76 65 20 
    4934:	49 89 47 10          	mov    %rax,0x10(%r15)
    4938:	49 89 57 18          	mov    %rdx,0x18(%r15)
    493c:	48 b8 73 65 72 76 65 	movabs $0x6120726576726573,%rax
    4943:	72 20 61 
    4946:	49 89 47 20          	mov    %rax,0x20(%r15)
    494a:	41 c7 47 28 64 64 72 	movl   $0x65726464,0x28(%r15)
    4951:	65 
    4952:	66 41 c7 47 2c 73 73 	movw   $0x7373,0x2c(%r15)
    4959:	41 c6 47 2e 00       	movb   $0x0,0x2e(%r15)
    495e:	44 89 e7             	mov    %r12d,%edi
    4961:	e8 6a e9 ff ff       	callq  32d0 <close@plt>
    4966:	b8 ff ff ff ff       	mov    $0xffffffff,%eax
    496b:	e9 27 04 00 00       	jmpq   4d97 <submitr+0x683>
    4970:	48 b8 45 72 72 6f 72 	movabs $0x55203a726f727245,%rax
    4977:	3a 20 55 
    497a:	48 ba 6e 61 62 6c 65 	movabs $0x6f7420656c62616e,%rdx
    4981:	20 74 6f 
    4984:	49 89 07             	mov    %rax,(%r15)
    4987:	49 89 57 08          	mov    %rdx,0x8(%r15)
    498b:	48 b8 20 63 6f 6e 6e 	movabs $0x7463656e6e6f6320,%rax
    4992:	65 63 74 
    4995:	48 ba 20 74 6f 20 74 	movabs $0x20656874206f7420,%rdx
    499c:	68 65 20 
    499f:	49 89 47 10          	mov    %rax,0x10(%r15)
    49a3:	49 89 57 18          	mov    %rdx,0x18(%r15)
    49a7:	41 c7 47 20 73 65 72 	movl   $0x76726573,0x20(%r15)
    49ae:	76 
    49af:	66 41 c7 47 24 65 72 	movw   $0x7265,0x24(%r15)
    49b6:	41 c6 47 26 00       	movb   $0x0,0x26(%r15)
    49bb:	44 89 e7             	mov    %r12d,%edi
    49be:	e8 0d e9 ff ff       	callq  32d0 <close@plt>
    49c3:	b8 ff ff ff ff       	mov    $0xffffffff,%eax
    49c8:	e9 ca 03 00 00       	jmpq   4d97 <submitr+0x683>
    49cd:	48 b8 45 72 72 6f 72 	movabs $0x52203a726f727245,%rax
    49d4:	3a 20 52 
    49d7:	48 ba 65 73 75 6c 74 	movabs $0x747320746c757365,%rdx
    49de:	20 73 74 
    49e1:	49 89 07             	mov    %rax,(%r15)
    49e4:	49 89 57 08          	mov    %rdx,0x8(%r15)
    49e8:	48 b8 72 69 6e 67 20 	movabs $0x6f6f7420676e6972,%rax
    49ef:	74 6f 6f 
    49f2:	48 ba 20 6c 61 72 67 	movabs $0x202e656772616c20,%rdx
    49f9:	65 2e 20 
    49fc:	49 89 47 10          	mov    %rax,0x10(%r15)
    4a00:	49 89 57 18          	mov    %rdx,0x18(%r15)
    4a04:	48 b8 49 6e 63 72 65 	movabs $0x6573616572636e49,%rax
    4a0b:	61 73 65 
    4a0e:	48 ba 20 53 55 42 4d 	movabs $0x5254494d42555320,%rdx
    4a15:	49 54 52 
    4a18:	49 89 47 20          	mov    %rax,0x20(%r15)
    4a1c:	49 89 57 28          	mov    %rdx,0x28(%r15)
    4a20:	48 b8 5f 4d 41 58 42 	movabs $0x46554258414d5f,%rax
    4a27:	55 46 00 
    4a2a:	49 89 47 30          	mov    %rax,0x30(%r15)
    4a2e:	44 89 e7             	mov    %r12d,%edi
    4a31:	e8 9a e8 ff ff       	callq  32d0 <close@plt>
    4a36:	b8 ff ff ff ff       	mov    $0xffffffff,%eax
    4a3b:	e9 57 03 00 00       	jmpq   4d97 <submitr+0x683>
    4a40:	49 0f a3 c5          	bt     %rax,%r13
    4a44:	73 21                	jae    4a67 <submitr+0x353>
    4a46:	44 88 45 00          	mov    %r8b,0x0(%rbp)
    4a4a:	48 8d 6d 01          	lea    0x1(%rbp),%rbp
    4a4e:	48 83 c3 01          	add    $0x1,%rbx
    4a52:	4c 39 f3             	cmp    %r14,%rbx
    4a55:	0f 84 c4 04 00 00    	je     4f1f <submitr+0x80b>
    4a5b:	44 0f b6 03          	movzbl (%rbx),%r8d
    4a5f:	41 8d 40 d6          	lea    -0x2a(%r8),%eax
    4a63:	3c 35                	cmp    $0x35,%al
    4a65:	76 d9                	jbe    4a40 <submitr+0x32c>
    4a67:	44 89 c0             	mov    %r8d,%eax
    4a6a:	83 e0 df             	and    $0xffffffdf,%eax
    4a6d:	83 e8 41             	sub    $0x41,%eax
    4a70:	3c 19                	cmp    $0x19,%al
    4a72:	76 d2                	jbe    4a46 <submitr+0x332>
    4a74:	41 80 f8 20          	cmp    $0x20,%r8b
    4a78:	74 63                	je     4add <submitr+0x3c9>
    4a7a:	41 8d 40 e0          	lea    -0x20(%r8),%eax
    4a7e:	3c 5f                	cmp    $0x5f,%al
    4a80:	76 0a                	jbe    4a8c <submitr+0x378>
    4a82:	41 80 f8 09          	cmp    $0x9,%r8b
    4a86:	0f 85 06 04 00 00    	jne    4e92 <submitr+0x77e>
    4a8c:	48 8d bc 24 50 80 00 	lea    0x8050(%rsp),%rdi
    4a93:	00 
    4a94:	45 0f b6 c0          	movzbl %r8b,%r8d
    4a98:	48 8d 0d 07 2f 00 00 	lea    0x2f07(%rip),%rcx        # 79a6 <array.3483+0x1766>
    4a9f:	ba 08 00 00 00       	mov    $0x8,%edx
    4aa4:	be 01 00 00 00       	mov    $0x1,%esi
    4aa9:	b8 00 00 00 00       	mov    $0x0,%eax
    4aae:	e8 4d e9 ff ff       	callq  3400 <__sprintf_chk@plt>
    4ab3:	0f b6 84 24 50 80 00 	movzbl 0x8050(%rsp),%eax
    4aba:	00 
    4abb:	88 45 00             	mov    %al,0x0(%rbp)
    4abe:	0f b6 84 24 51 80 00 	movzbl 0x8051(%rsp),%eax
    4ac5:	00 
    4ac6:	88 45 01             	mov    %al,0x1(%rbp)
    4ac9:	0f b6 84 24 52 80 00 	movzbl 0x8052(%rsp),%eax
    4ad0:	00 
    4ad1:	88 45 02             	mov    %al,0x2(%rbp)
    4ad4:	48 8d 6d 03          	lea    0x3(%rbp),%rbp
    4ad8:	e9 71 ff ff ff       	jmpq   4a4e <submitr+0x33a>
    4add:	c6 45 00 2b          	movb   $0x2b,0x0(%rbp)
    4ae1:	48 8d 6d 01          	lea    0x1(%rbp),%rbp
    4ae5:	e9 64 ff ff ff       	jmpq   4a4e <submitr+0x33a>
    4aea:	48 b8 45 72 72 6f 72 	movabs $0x47203a726f727245,%rax
    4af1:	3a 20 47 
    4af4:	48 ba 45 54 20 72 65 	movabs $0x6575716572205445,%rdx
    4afb:	71 75 65 
    4afe:	49 89 07             	mov    %rax,(%r15)
    4b01:	49 89 57 08          	mov    %rdx,0x8(%r15)
    4b05:	48 b8 73 74 20 65 78 	movabs $0x6565637865207473,%rax
    4b0c:	63 65 65 
    4b0f:	48 ba 64 73 20 62 75 	movabs $0x6566667562207364,%rdx
    4b16:	66 66 65 
    4b19:	49 89 47 10          	mov    %rax,0x10(%r15)
    4b1d:	49 89 57 18          	mov    %rdx,0x18(%r15)
    4b21:	41 c7 47 20 72 20 73 	movl   $0x69732072,0x20(%r15)
    4b28:	69 
    4b29:	66 41 c7 47 24 7a 65 	movw   $0x657a,0x24(%r15)
    4b30:	41 c6 47 26 00       	movb   $0x0,0x26(%r15)
    4b35:	44 89 e7             	mov    %r12d,%edi
    4b38:	e8 93 e7 ff ff       	callq  32d0 <close@plt>
    4b3d:	b8 ff ff ff ff       	mov    $0xffffffff,%eax
    4b42:	e9 50 02 00 00       	jmpq   4d97 <submitr+0x683>
    4b47:	48 01 c5             	add    %rax,%rbp
    4b4a:	48 29 c3             	sub    %rax,%rbx
    4b4d:	74 26                	je     4b75 <submitr+0x461>
    4b4f:	48 89 da             	mov    %rbx,%rdx
    4b52:	48 89 ee             	mov    %rbp,%rsi
    4b55:	44 89 e7             	mov    %r12d,%edi
    4b58:	e8 43 e7 ff ff       	callq  32a0 <write@plt>
    4b5d:	48 85 c0             	test   %rax,%rax
    4b60:	7f e5                	jg     4b47 <submitr+0x433>
    4b62:	e8 09 e7 ff ff       	callq  3270 <__errno_location@plt>
    4b67:	83 38 04             	cmpl   $0x4,(%rax)
    4b6a:	0f 85 c3 02 00 00    	jne    4e33 <submitr+0x71f>
    4b70:	4c 89 e8             	mov    %r13,%rax
    4b73:	eb d2                	jmp    4b47 <submitr+0x433>
    4b75:	44 89 64 24 40       	mov    %r12d,0x40(%rsp)
    4b7a:	c7 44 24 44 00 00 00 	movl   $0x0,0x44(%rsp)
    4b81:	00 
    4b82:	48 8d 7c 24 40       	lea    0x40(%rsp),%rdi
    4b87:	48 8d 44 24 50       	lea    0x50(%rsp),%rax
    4b8c:	48 89 44 24 48       	mov    %rax,0x48(%rsp)
    4b91:	48 8d b4 24 50 20 00 	lea    0x2050(%rsp),%rsi
    4b98:	00 
    4b99:	ba 00 20 00 00       	mov    $0x2000,%edx
    4b9e:	e8 a8 fa ff ff       	callq  464b <rio_readlineb>
    4ba3:	48 85 c0             	test   %rax,%rax
    4ba6:	0f 8e ec 00 00 00    	jle    4c98 <submitr+0x584>
    4bac:	48 8d 4c 24 2c       	lea    0x2c(%rsp),%rcx
    4bb1:	48 8d 94 24 50 60 00 	lea    0x6050(%rsp),%rdx
    4bb8:	00 
    4bb9:	48 8d bc 24 50 20 00 	lea    0x2050(%rsp),%rdi
    4bc0:	00 
    4bc1:	4c 8d 84 24 50 80 00 	lea    0x8050(%rsp),%r8
    4bc8:	00 
    4bc9:	48 8d 35 dd 2d 00 00 	lea    0x2ddd(%rip),%rsi        # 79ad <array.3483+0x176d>
    4bd0:	b8 00 00 00 00       	mov    $0x0,%eax
    4bd5:	e8 86 e7 ff ff       	callq  3360 <__isoc99_sscanf@plt>
    4bda:	44 8b 44 24 2c       	mov    0x2c(%rsp),%r8d
    4bdf:	41 81 f8 c8 00 00 00 	cmp    $0xc8,%r8d
    4be6:	0f 85 20 01 00 00    	jne    4d0c <submitr+0x5f8>
    4bec:	48 8d 1d cb 2d 00 00 	lea    0x2dcb(%rip),%rbx        # 79be <array.3483+0x177e>
    4bf3:	48 8d b4 24 50 20 00 	lea    0x2050(%rsp),%rsi
    4bfa:	00 
    4bfb:	b9 03 00 00 00       	mov    $0x3,%ecx
    4c00:	48 89 df             	mov    %rbx,%rdi
    4c03:	f3 a6                	repz cmpsb %es:(%rdi),%ds:(%rsi)
    4c05:	0f 97 c0             	seta   %al
    4c08:	1c 00                	sbb    $0x0,%al
    4c0a:	84 c0                	test   %al,%al
    4c0c:	0f 84 31 01 00 00    	je     4d43 <submitr+0x62f>
    4c12:	48 8d b4 24 50 20 00 	lea    0x2050(%rsp),%rsi
    4c19:	00 
    4c1a:	48 8d 7c 24 40       	lea    0x40(%rsp),%rdi
    4c1f:	ba 00 20 00 00       	mov    $0x2000,%edx
    4c24:	e8 22 fa ff ff       	callq  464b <rio_readlineb>
    4c29:	48 85 c0             	test   %rax,%rax
    4c2c:	7f c5                	jg     4bf3 <submitr+0x4df>
    4c2e:	48 b8 45 72 72 6f 72 	movabs $0x43203a726f727245,%rax
    4c35:	3a 20 43 
    4c38:	48 ba 6c 69 65 6e 74 	movabs $0x6e7520746e65696c,%rdx
    4c3f:	20 75 6e 
    4c42:	49 89 07             	mov    %rax,(%r15)
    4c45:	49 89 57 08          	mov    %rdx,0x8(%r15)
    4c49:	48 b8 61 62 6c 65 20 	movabs $0x206f7420656c6261,%rax
    4c50:	74 6f 20 
    4c53:	48 ba 72 65 61 64 20 	movabs $0x6165682064616572,%rdx
    4c5a:	68 65 61 
    4c5d:	49 89 47 10          	mov    %rax,0x10(%r15)
    4c61:	49 89 57 18          	mov    %rdx,0x18(%r15)
    4c65:	48 b8 64 65 72 73 20 	movabs $0x6f72662073726564,%rax
    4c6c:	66 72 6f 
    4c6f:	48 ba 6d 20 73 65 72 	movabs $0x726576726573206d,%rdx
    4c76:	76 65 72 
    4c79:	49 89 47 20          	mov    %rax,0x20(%r15)
    4c7d:	49 89 57 28          	mov    %rdx,0x28(%r15)
    4c81:	41 c6 47 30 00       	movb   $0x0,0x30(%r15)
    4c86:	44 89 e7             	mov    %r12d,%edi
    4c89:	e8 42 e6 ff ff       	callq  32d0 <close@plt>
    4c8e:	b8 ff ff ff ff       	mov    $0xffffffff,%eax
    4c93:	e9 ff 00 00 00       	jmpq   4d97 <submitr+0x683>
    4c98:	48 b8 45 72 72 6f 72 	movabs $0x43203a726f727245,%rax
    4c9f:	3a 20 43 
    4ca2:	48 ba 6c 69 65 6e 74 	movabs $0x6e7520746e65696c,%rdx
    4ca9:	20 75 6e 
    4cac:	49 89 07             	mov    %rax,(%r15)
    4caf:	49 89 57 08          	mov    %rdx,0x8(%r15)
    4cb3:	48 b8 61 62 6c 65 20 	movabs $0x206f7420656c6261,%rax
    4cba:	74 6f 20 
    4cbd:	48 ba 72 65 61 64 20 	movabs $0x7269662064616572,%rdx
    4cc4:	66 69 72 
    4cc7:	49 89 47 10          	mov    %rax,0x10(%r15)
    4ccb:	49 89 57 18          	mov    %rdx,0x18(%r15)
    4ccf:	48 b8 73 74 20 68 65 	movabs $0x6564616568207473,%rax
    4cd6:	61 64 65 
    4cd9:	48 ba 72 20 66 72 6f 	movabs $0x73206d6f72662072,%rdx
    4ce0:	6d 20 73 
    4ce3:	49 89 47 20          	mov    %rax,0x20(%r15)
    4ce7:	49 89 57 28          	mov    %rdx,0x28(%r15)
    4ceb:	41 c7 47 30 65 72 76 	movl   $0x65767265,0x30(%r15)
    4cf2:	65 
    4cf3:	66 41 c7 47 34 72 00 	movw   $0x72,0x34(%r15)
    4cfa:	44 89 e7             	mov    %r12d,%edi
    4cfd:	e8 ce e5 ff ff       	callq  32d0 <close@plt>
    4d02:	b8 ff ff ff ff       	mov    $0xffffffff,%eax
    4d07:	e9 8b 00 00 00       	jmpq   4d97 <submitr+0x683>
    4d0c:	4c 8d 8c 24 50 80 00 	lea    0x8050(%rsp),%r9
    4d13:	00 
    4d14:	48 8d 0d b5 2b 00 00 	lea    0x2bb5(%rip),%rcx        # 78d0 <array.3483+0x1690>
    4d1b:	48 c7 c2 ff ff ff ff 	mov    $0xffffffffffffffff,%rdx
    4d22:	be 01 00 00 00       	mov    $0x1,%esi
    4d27:	4c 89 ff             	mov    %r15,%rdi
    4d2a:	b8 00 00 00 00       	mov    $0x0,%eax
    4d2f:	e8 cc e6 ff ff       	callq  3400 <__sprintf_chk@plt>
    4d34:	44 89 e7             	mov    %r12d,%edi
    4d37:	e8 94 e5 ff ff       	callq  32d0 <close@plt>
    4d3c:	b8 ff ff ff ff       	mov    $0xffffffff,%eax
    4d41:	eb 54                	jmp    4d97 <submitr+0x683>
    4d43:	48 8d b4 24 50 20 00 	lea    0x2050(%rsp),%rsi
    4d4a:	00 
    4d4b:	48 8d 7c 24 40       	lea    0x40(%rsp),%rdi
    4d50:	ba 00 20 00 00       	mov    $0x2000,%edx
    4d55:	e8 f1 f8 ff ff       	callq  464b <rio_readlineb>
    4d5a:	48 85 c0             	test   %rax,%rax
    4d5d:	7e 61                	jle    4dc0 <submitr+0x6ac>
    4d5f:	48 8d b4 24 50 20 00 	lea    0x2050(%rsp),%rsi
    4d66:	00 
    4d67:	4c 89 ff             	mov    %r15,%rdi
    4d6a:	e8 11 e5 ff ff       	callq  3280 <strcpy@plt>
    4d6f:	44 89 e7             	mov    %r12d,%edi
    4d72:	e8 59 e5 ff ff       	callq  32d0 <close@plt>
    4d77:	b9 03 00 00 00       	mov    $0x3,%ecx
    4d7c:	48 8d 3d 3e 2c 00 00 	lea    0x2c3e(%rip),%rdi        # 79c1 <array.3483+0x1781>
    4d83:	4c 89 fe             	mov    %r15,%rsi
    4d86:	f3 a6                	repz cmpsb %es:(%rdi),%ds:(%rsi)
    4d88:	0f 97 c0             	seta   %al
    4d8b:	1c 00                	sbb    $0x0,%al
    4d8d:	84 c0                	test   %al,%al
    4d8f:	0f 95 c0             	setne  %al
    4d92:	0f b6 c0             	movzbl %al,%eax
    4d95:	f7 d8                	neg    %eax
    4d97:	48 8b 94 24 58 a0 00 	mov    0xa058(%rsp),%rdx
    4d9e:	00 
    4d9f:	64 48 33 14 25 28 00 	xor    %fs:0x28,%rdx
    4da6:	00 00 
    4da8:	0f 85 fb 01 00 00    	jne    4fa9 <submitr+0x895>
    4dae:	48 81 c4 68 a0 00 00 	add    $0xa068,%rsp
    4db5:	5b                   	pop    %rbx
    4db6:	5d                   	pop    %rbp
    4db7:	41 5c                	pop    %r12
    4db9:	41 5d                	pop    %r13
    4dbb:	41 5e                	pop    %r14
    4dbd:	41 5f                	pop    %r15
    4dbf:	c3                   	retq   
    4dc0:	48 b8 45 72 72 6f 72 	movabs $0x43203a726f727245,%rax
    4dc7:	3a 20 43 
    4dca:	48 ba 6c 69 65 6e 74 	movabs $0x6e7520746e65696c,%rdx
    4dd1:	20 75 6e 
    4dd4:	49 89 07             	mov    %rax,(%r15)
    4dd7:	49 89 57 08          	mov    %rdx,0x8(%r15)
    4ddb:	48 b8 61 62 6c 65 20 	movabs $0x206f7420656c6261,%rax
    4de2:	74 6f 20 
    4de5:	48 ba 72 65 61 64 20 	movabs $0x6174732064616572,%rdx
    4dec:	73 74 61 
    4def:	49 89 47 10          	mov    %rax,0x10(%r15)
    4df3:	49 89 57 18          	mov    %rdx,0x18(%r15)
    4df7:	48 b8 74 75 73 20 6d 	movabs $0x7373656d20737574,%rax
    4dfe:	65 73 73 
    4e01:	48 ba 61 67 65 20 66 	movabs $0x6d6f726620656761,%rdx
    4e08:	72 6f 6d 
    4e0b:	49 89 47 20          	mov    %rax,0x20(%r15)
    4e0f:	49 89 57 28          	mov    %rdx,0x28(%r15)
    4e13:	48 b8 20 73 65 72 76 	movabs $0x72657672657320,%rax
    4e1a:	65 72 00 
    4e1d:	49 89 47 30          	mov    %rax,0x30(%r15)
    4e21:	44 89 e7             	mov    %r12d,%edi
    4e24:	e8 a7 e4 ff ff       	callq  32d0 <close@plt>
    4e29:	b8 ff ff ff ff       	mov    $0xffffffff,%eax
    4e2e:	e9 64 ff ff ff       	jmpq   4d97 <submitr+0x683>
    4e33:	48 b8 45 72 72 6f 72 	movabs $0x43203a726f727245,%rax
    4e3a:	3a 20 43 
    4e3d:	48 ba 6c 69 65 6e 74 	movabs $0x6e7520746e65696c,%rdx
    4e44:	20 75 6e 
    4e47:	49 89 07             	mov    %rax,(%r15)
    4e4a:	49 89 57 08          	mov    %rdx,0x8(%r15)
    4e4e:	48 b8 61 62 6c 65 20 	movabs $0x206f7420656c6261,%rax
    4e55:	74 6f 20 
    4e58:	48 ba 77 72 69 74 65 	movabs $0x6f74206574697277,%rdx
    4e5f:	20 74 6f 
    4e62:	49 89 47 10          	mov    %rax,0x10(%r15)
    4e66:	49 89 57 18          	mov    %rdx,0x18(%r15)
    4e6a:	48 b8 20 74 68 65 20 	movabs $0x7265732065687420,%rax
    4e71:	73 65 72 
    4e74:	49 89 47 20          	mov    %rax,0x20(%r15)
    4e78:	41 c7 47 28 76 65 72 	movl   $0x726576,0x28(%r15)
    4e7f:	00 
    4e80:	44 89 e7             	mov    %r12d,%edi
    4e83:	e8 48 e4 ff ff       	callq  32d0 <close@plt>
    4e88:	b8 ff ff ff ff       	mov    $0xffffffff,%eax
    4e8d:	e9 05 ff ff ff       	jmpq   4d97 <submitr+0x683>
    4e92:	48 b8 45 72 72 6f 72 	movabs $0x52203a726f727245,%rax
    4e99:	3a 20 52 
    4e9c:	48 ba 65 73 75 6c 74 	movabs $0x747320746c757365,%rdx
    4ea3:	20 73 74 
    4ea6:	49 89 07             	mov    %rax,(%r15)
    4ea9:	49 89 57 08          	mov    %rdx,0x8(%r15)
    4ead:	48 b8 72 69 6e 67 20 	movabs $0x6e6f6320676e6972,%rax
    4eb4:	63 6f 6e 
    4eb7:	48 ba 74 61 69 6e 73 	movabs $0x6e6120736e696174,%rdx
    4ebe:	20 61 6e 
    4ec1:	49 89 47 10          	mov    %rax,0x10(%r15)
    4ec5:	49 89 57 18          	mov    %rdx,0x18(%r15)
    4ec9:	48 b8 20 69 6c 6c 65 	movabs $0x6c6167656c6c6920,%rax
    4ed0:	67 61 6c 
    4ed3:	48 ba 20 6f 72 20 75 	movabs $0x72706e7520726f20,%rdx
    4eda:	6e 70 72 
    4edd:	49 89 47 20          	mov    %rax,0x20(%r15)
    4ee1:	49 89 57 28          	mov    %rdx,0x28(%r15)
    4ee5:	48 b8 69 6e 74 61 62 	movabs $0x20656c6261746e69,%rax
    4eec:	6c 65 20 
    4eef:	48 ba 63 68 61 72 61 	movabs $0x6574636172616863,%rdx
    4ef6:	63 74 65 
    4ef9:	49 89 47 30          	mov    %rax,0x30(%r15)
    4efd:	49 89 57 38          	mov    %rdx,0x38(%r15)
    4f01:	66 41 c7 47 40 72 2e 	movw   $0x2e72,0x40(%r15)
    4f08:	41 c6 47 42 00       	movb   $0x0,0x42(%r15)
    4f0d:	44 89 e7             	mov    %r12d,%edi
    4f10:	e8 bb e3 ff ff       	callq  32d0 <close@plt>
    4f15:	b8 ff ff ff ff       	mov    $0xffffffff,%eax
    4f1a:	e9 78 fe ff ff       	jmpq   4d97 <submitr+0x683>
    4f1f:	48 8d bc 24 50 20 00 	lea    0x2050(%rsp),%rdi
    4f26:	00 
    4f27:	48 8d 84 24 50 40 00 	lea    0x4050(%rsp),%rax
    4f2e:	00 
    4f2f:	50                   	push   %rax
    4f30:	ff 74 24 18          	pushq  0x18(%rsp)
    4f34:	ff 74 24 28          	pushq  0x28(%rsp)
    4f38:	ff 74 24 20          	pushq  0x20(%rsp)
    4f3c:	4c 8b 4c 24 20       	mov    0x20(%rsp),%r9
    4f41:	4c 8d 05 b8 29 00 00 	lea    0x29b8(%rip),%r8        # 7900 <array.3483+0x16c0>
    4f48:	b9 00 20 00 00       	mov    $0x2000,%ecx
    4f4d:	ba 01 00 00 00       	mov    $0x1,%edx
    4f52:	be 00 20 00 00       	mov    $0x2000,%esi
    4f57:	b8 00 00 00 00       	mov    $0x0,%eax
    4f5c:	e8 df e2 ff ff       	callq  3240 <__snprintf_chk@plt>
    4f61:	48 83 c4 20          	add    $0x20,%rsp
    4f65:	3d ff 1f 00 00       	cmp    $0x1fff,%eax
    4f6a:	0f 8f 7a fb ff ff    	jg     4aea <submitr+0x3d6>
    4f70:	48 8d bc 24 50 20 00 	lea    0x2050(%rsp),%rdi
    4f77:	00 
    4f78:	48 c7 c1 ff ff ff ff 	mov    $0xffffffffffffffff,%rcx
    4f7f:	b8 00 00 00 00       	mov    $0x0,%eax
    4f84:	f2 ae                	repnz scas %es:(%rdi),%al
    4f86:	48 f7 d1             	not    %rcx
    4f89:	48 89 cb             	mov    %rcx,%rbx
    4f8c:	48 83 eb 01          	sub    $0x1,%rbx
    4f90:	0f 84 df fb ff ff    	je     4b75 <submitr+0x461>
    4f96:	48 8d ac 24 50 20 00 	lea    0x2050(%rsp),%rbp
    4f9d:	00 
    4f9e:	41 bd 00 00 00 00    	mov    $0x0,%r13d
    4fa4:	e9 a6 fb ff ff       	jmpq   4b4f <submitr+0x43b>
    4fa9:	e8 02 e3 ff ff       	callq  32b0 <__stack_chk_fail@plt>

0000000000004fae <init_timeout>:
    4fae:	f3 0f 1e fa          	endbr64 
    4fb2:	85 ff                	test   %edi,%edi
    4fb4:	75 01                	jne    4fb7 <init_timeout+0x9>
    4fb6:	c3                   	retq   
    4fb7:	53                   	push   %rbx
    4fb8:	89 fb                	mov    %edi,%ebx
    4fba:	48 8d 35 54 f6 ff ff 	lea    -0x9ac(%rip),%rsi        # 4615 <sigalrm_handler>
    4fc1:	bf 0e 00 00 00       	mov    $0xe,%edi
    4fc6:	e8 45 e3 ff ff       	callq  3310 <signal@plt>
    4fcb:	85 db                	test   %ebx,%ebx
    4fcd:	bf 00 00 00 00       	mov    $0x0,%edi
    4fd2:	0f 49 fb             	cmovns %ebx,%edi
    4fd5:	e8 e6 e2 ff ff       	callq  32c0 <alarm@plt>
    4fda:	5b                   	pop    %rbx
    4fdb:	c3                   	retq   

0000000000004fdc <init_driver>:
    4fdc:	f3 0f 1e fa          	endbr64 
    4fe0:	41 54                	push   %r12
    4fe2:	55                   	push   %rbp
    4fe3:	53                   	push   %rbx
    4fe4:	48 83 ec 20          	sub    $0x20,%rsp
    4fe8:	48 89 fd             	mov    %rdi,%rbp
    4feb:	64 48 8b 04 25 28 00 	mov    %fs:0x28,%rax
    4ff2:	00 00 
    4ff4:	48 89 44 24 18       	mov    %rax,0x18(%rsp)
    4ff9:	31 c0                	xor    %eax,%eax
    4ffb:	be 01 00 00 00       	mov    $0x1,%esi
    5000:	bf 0d 00 00 00       	mov    $0xd,%edi
    5005:	e8 06 e3 ff ff       	callq  3310 <signal@plt>
    500a:	be 01 00 00 00       	mov    $0x1,%esi
    500f:	bf 1d 00 00 00       	mov    $0x1d,%edi
    5014:	e8 f7 e2 ff ff       	callq  3310 <signal@plt>
    5019:	be 01 00 00 00       	mov    $0x1,%esi
    501e:	bf 1d 00 00 00       	mov    $0x1d,%edi
    5023:	e8 e8 e2 ff ff       	callq  3310 <signal@plt>
    5028:	ba 00 00 00 00       	mov    $0x0,%edx
    502d:	be 01 00 00 00       	mov    $0x1,%esi
    5032:	bf 02 00 00 00       	mov    $0x2,%edi
    5037:	e8 d4 e3 ff ff       	callq  3410 <socket@plt>
    503c:	85 c0                	test   %eax,%eax
    503e:	0f 88 9c 00 00 00    	js     50e0 <init_driver+0x104>
    5044:	89 c3                	mov    %eax,%ebx
    5046:	48 8d 3d 0b 29 00 00 	lea    0x290b(%rip),%rdi        # 7958 <array.3483+0x1718>
    504d:	e8 ce e2 ff ff       	callq  3320 <gethostbyname@plt>
    5052:	48 85 c0             	test   %rax,%rax
    5055:	0f 84 d1 00 00 00    	je     512c <init_driver+0x150>
    505b:	49 89 e4             	mov    %rsp,%r12
    505e:	48 c7 04 24 00 00 00 	movq   $0x0,(%rsp)
    5065:	00 
    5066:	48 c7 44 24 08 00 00 	movq   $0x0,0x8(%rsp)
    506d:	00 00 
    506f:	66 c7 04 24 02 00    	movw   $0x2,(%rsp)
    5075:	48 63 50 14          	movslq 0x14(%rax),%rdx
    5079:	48 8b 40 18          	mov    0x18(%rax),%rax
    507d:	48 8d 7c 24 04       	lea    0x4(%rsp),%rdi
    5082:	b9 0c 00 00 00       	mov    $0xc,%ecx
    5087:	48 8b 30             	mov    (%rax),%rsi
    508a:	e8 a1 e2 ff ff       	callq  3330 <__memmove_chk@plt>
    508f:	66 c7 44 24 02 3b 6e 	movw   $0x6e3b,0x2(%rsp)
    5096:	ba 10 00 00 00       	mov    $0x10,%edx
    509b:	4c 89 e6             	mov    %r12,%rsi
    509e:	89 df                	mov    %ebx,%edi
    50a0:	e8 1b e3 ff ff       	callq  33c0 <connect@plt>
    50a5:	85 c0                	test   %eax,%eax
    50a7:	0f 88 e7 00 00 00    	js     5194 <init_driver+0x1b8>
    50ad:	89 df                	mov    %ebx,%edi
    50af:	e8 1c e2 ff ff       	callq  32d0 <close@plt>
    50b4:	66 c7 45 00 4f 4b    	movw   $0x4b4f,0x0(%rbp)
    50ba:	c6 45 02 00          	movb   $0x0,0x2(%rbp)
    50be:	b8 00 00 00 00       	mov    $0x0,%eax
    50c3:	48 8b 4c 24 18       	mov    0x18(%rsp),%rcx
    50c8:	64 48 33 0c 25 28 00 	xor    %fs:0x28,%rcx
    50cf:	00 00 
    50d1:	0f 85 f5 00 00 00    	jne    51cc <init_driver+0x1f0>
    50d7:	48 83 c4 20          	add    $0x20,%rsp
    50db:	5b                   	pop    %rbx
    50dc:	5d                   	pop    %rbp
    50dd:	41 5c                	pop    %r12
    50df:	c3                   	retq   
    50e0:	48 b8 45 72 72 6f 72 	movabs $0x43203a726f727245,%rax
    50e7:	3a 20 43 
    50ea:	48 ba 6c 69 65 6e 74 	movabs $0x6e7520746e65696c,%rdx
    50f1:	20 75 6e 
    50f4:	48 89 45 00          	mov    %rax,0x0(%rbp)
    50f8:	48 89 55 08          	mov    %rdx,0x8(%rbp)
    50fc:	48 b8 61 62 6c 65 20 	movabs $0x206f7420656c6261,%rax
    5103:	74 6f 20 
    5106:	48 ba 63 72 65 61 74 	movabs $0x7320657461657263,%rdx
    510d:	65 20 73 
    5110:	48 89 45 10          	mov    %rax,0x10(%rbp)
    5114:	48 89 55 18          	mov    %rdx,0x18(%rbp)
    5118:	c7 45 20 6f 63 6b 65 	movl   $0x656b636f,0x20(%rbp)
    511f:	66 c7 45 24 74 00    	movw   $0x74,0x24(%rbp)
    5125:	b8 ff ff ff ff       	mov    $0xffffffff,%eax
    512a:	eb 97                	jmp    50c3 <init_driver+0xe7>
    512c:	48 b8 45 72 72 6f 72 	movabs $0x44203a726f727245,%rax
    5133:	3a 20 44 
    5136:	48 ba 4e 53 20 69 73 	movabs $0x6e7520736920534e,%rdx
    513d:	20 75 6e 
    5140:	48 89 45 00          	mov    %rax,0x0(%rbp)
    5144:	48 89 55 08          	mov    %rdx,0x8(%rbp)
    5148:	48 b8 61 62 6c 65 20 	movabs $0x206f7420656c6261,%rax
    514f:	74 6f 20 
    5152:	48 ba 72 65 73 6f 6c 	movabs $0x2065766c6f736572,%rdx
    5159:	76 65 20 
    515c:	48 89 45 10          	mov    %rax,0x10(%rbp)
    5160:	48 89 55 18          	mov    %rdx,0x18(%rbp)
    5164:	48 b8 73 65 72 76 65 	movabs $0x6120726576726573,%rax
    516b:	72 20 61 
    516e:	48 89 45 20          	mov    %rax,0x20(%rbp)
    5172:	c7 45 28 64 64 72 65 	movl   $0x65726464,0x28(%rbp)
    5179:	66 c7 45 2c 73 73    	movw   $0x7373,0x2c(%rbp)
    517f:	c6 45 2e 00          	movb   $0x0,0x2e(%rbp)
    5183:	89 df                	mov    %ebx,%edi
    5185:	e8 46 e1 ff ff       	callq  32d0 <close@plt>
    518a:	b8 ff ff ff ff       	mov    $0xffffffff,%eax
    518f:	e9 2f ff ff ff       	jmpq   50c3 <init_driver+0xe7>
    5194:	4c 8d 05 bd 27 00 00 	lea    0x27bd(%rip),%r8        # 7958 <array.3483+0x1718>
    519b:	48 8d 0d de 27 00 00 	lea    0x27de(%rip),%rcx        # 7980 <array.3483+0x1740>
    51a2:	48 c7 c2 ff ff ff ff 	mov    $0xffffffffffffffff,%rdx
    51a9:	be 01 00 00 00       	mov    $0x1,%esi
    51ae:	48 89 ef             	mov    %rbp,%rdi
    51b1:	b8 00 00 00 00       	mov    $0x0,%eax
    51b6:	e8 45 e2 ff ff       	callq  3400 <__sprintf_chk@plt>
    51bb:	89 df                	mov    %ebx,%edi
    51bd:	e8 0e e1 ff ff       	callq  32d0 <close@plt>
    51c2:	b8 ff ff ff ff       	mov    $0xffffffff,%eax
    51c7:	e9 f7 fe ff ff       	jmpq   50c3 <init_driver+0xe7>
    51cc:	e8 df e0 ff ff       	callq  32b0 <__stack_chk_fail@plt>

00000000000051d1 <driver_post>:
    51d1:	f3 0f 1e fa          	endbr64 
    51d5:	53                   	push   %rbx
    51d6:	4c 89 c3             	mov    %r8,%rbx
    51d9:	85 c9                	test   %ecx,%ecx
    51db:	75 17                	jne    51f4 <driver_post+0x23>
    51dd:	48 85 ff             	test   %rdi,%rdi
    51e0:	74 05                	je     51e7 <driver_post+0x16>
    51e2:	80 3f 00             	cmpb   $0x0,(%rdi)
    51e5:	75 33                	jne    521a <driver_post+0x49>
    51e7:	66 c7 03 4f 4b       	movw   $0x4b4f,(%rbx)
    51ec:	c6 43 02 00          	movb   $0x0,0x2(%rbx)
    51f0:	89 c8                	mov    %ecx,%eax
    51f2:	5b                   	pop    %rbx
    51f3:	c3                   	retq   
    51f4:	48 8d 35 c9 27 00 00 	lea    0x27c9(%rip),%rsi        # 79c4 <array.3483+0x1784>
    51fb:	bf 01 00 00 00       	mov    $0x1,%edi
    5200:	b8 00 00 00 00       	mov    $0x0,%eax
    5205:	e8 76 e1 ff ff       	callq  3380 <__printf_chk@plt>
    520a:	66 c7 03 4f 4b       	movw   $0x4b4f,(%rbx)
    520f:	c6 43 02 00          	movb   $0x0,0x2(%rbx)
    5213:	b8 00 00 00 00       	mov    $0x0,%eax
    5218:	eb d8                	jmp    51f2 <driver_post+0x21>
    521a:	41 50                	push   %r8
    521c:	52                   	push   %rdx
    521d:	4c 8d 0d b7 27 00 00 	lea    0x27b7(%rip),%r9        # 79db <array.3483+0x179b>
    5224:	49 89 f0             	mov    %rsi,%r8
    5227:	48 89 f9             	mov    %rdi,%rcx
    522a:	48 8d 15 ae 27 00 00 	lea    0x27ae(%rip),%rdx        # 79df <array.3483+0x179f>
    5231:	be 6e 3b 00 00       	mov    $0x3b6e,%esi
    5236:	48 8d 3d 1b 27 00 00 	lea    0x271b(%rip),%rdi        # 7958 <array.3483+0x1718>
    523d:	e8 d2 f4 ff ff       	callq  4714 <submitr>
    5242:	48 83 c4 10          	add    $0x10,%rsp
    5246:	eb aa                	jmp    51f2 <driver_post+0x21>
    5248:	0f 1f 84 00 00 00 00 	nopl   0x0(%rax,%rax,1)
    524f:	00 

0000000000005250 <__libc_csu_init>:
    5250:	f3 0f 1e fa          	endbr64 
    5254:	41 57                	push   %r15
    5256:	4c 8d 3d 6b 4a 00 00 	lea    0x4a6b(%rip),%r15        # 9cc8 <__frame_dummy_init_array_entry>
    525d:	41 56                	push   %r14
    525f:	49 89 d6             	mov    %rdx,%r14
    5262:	41 55                	push   %r13
    5264:	49 89 f5             	mov    %rsi,%r13
    5267:	41 54                	push   %r12
    5269:	41 89 fc             	mov    %edi,%r12d
    526c:	55                   	push   %rbp
    526d:	48 8d 2d 5c 4a 00 00 	lea    0x4a5c(%rip),%rbp        # 9cd0 <__do_global_dtors_aux_fini_array_entry>
    5274:	53                   	push   %rbx
    5275:	4c 29 fd             	sub    %r15,%rbp
    5278:	48 83 ec 08          	sub    $0x8,%rsp
    527c:	e8 7f dd ff ff       	callq  3000 <_init>
    5281:	48 c1 fd 03          	sar    $0x3,%rbp
    5285:	74 1f                	je     52a6 <__libc_csu_init+0x56>
    5287:	31 db                	xor    %ebx,%ebx
    5289:	0f 1f 80 00 00 00 00 	nopl   0x0(%rax)
    5290:	4c 89 f2             	mov    %r14,%rdx
    5293:	4c 89 ee             	mov    %r13,%rsi
    5296:	44 89 e7             	mov    %r12d,%edi
    5299:	41 ff 14 df          	callq  *(%r15,%rbx,8)
    529d:	48 83 c3 01          	add    $0x1,%rbx
    52a1:	48 39 dd             	cmp    %rbx,%rbp
    52a4:	75 ea                	jne    5290 <__libc_csu_init+0x40>
    52a6:	48 83 c4 08          	add    $0x8,%rsp
    52aa:	5b                   	pop    %rbx
    52ab:	5d                   	pop    %rbp
    52ac:	41 5c                	pop    %r12
    52ae:	41 5d                	pop    %r13
    52b0:	41 5e                	pop    %r14
    52b2:	41 5f                	pop    %r15
    52b4:	c3                   	retq   
    52b5:	66 66 2e 0f 1f 84 00 	data16 nopw %cs:0x0(%rax,%rax,1)
    52bc:	00 00 00 00 

00000000000052c0 <__libc_csu_fini>:
    52c0:	f3 0f 1e fa          	endbr64 
    52c4:	c3                   	retq   

Disassembly of section .fini:

00000000000052c8 <_fini>:
    52c8:	f3 0f 1e fa          	endbr64 
    52cc:	48 83 ec 08          	sub    $0x8,%rsp
    52d0:	48 83 c4 08          	add    $0x8,%rsp
    52d4:	c3                   	retq   
